(dp0
I896
(cnumpy.core.multiarray
scalar
p1
(cnumpy
dtype
p2
(S'f8'
p3
I0
I1
tp4
Rp5
(I3
S'<'
p6
NNNI-1
I-1
I0
tp7
bS'b\x85:0\xa9\x0f\xcc?'
p8
tp9
Rp10
(lp11
S'329a5855e90638c7d25c6a1265d1d74f_3168'
p12
aS'27f00a453f3bdd8a3beb273b3ad2d39d_3212'
p13
aS'32a20d06dc9132648eaead1ca9b1033d_3272'
p14
aS'a5b40ff4ca9be61c6295fe8e6b5c7df4_3216'
p15
aS'331f0d1b3e25f7a3921642c26380f09b_3196'
p16
aS'a4f4fd555bcbfe6f62725a5599aee941_3096'
p17
aS'84dffc6d32371bbbfa701551e363af30_3212'
p18
aS'23ed4c1867cf18a06fed1b8fa7ec523e_3192'
p19
atp20
sI897
(g1
(g5
S'\x90p\xfa\xae\x97\xd0\xce?'
p21
tp22
Rp23
(lp24
S'6123f4e765d6ba2bb4d9878de8f0598b_3200'
p25
aS'2272d05b959f133bcf3e38c48ddbfcad_3256'
p26
aS'c32e9387f94c67a39d4c35b111302b0b_3208'
p27
aS'32abc951d6c707d2036c9e2a50e5fcb6_2868'
p28
aS'b295318cdd0ad09baa1cdadf86b90fc1_3228'
p29
aS'a0ceb22ed87df9019f39c5c135a58c17_3228'
p30
aS'03c009b451e012002513513a5d7e1b00_3444'
p31
atp32
sI899
(g1
(g5
S'\xbfB\x07\xd9\x89\x9d\xd0?'
p33
tp34
Rp35
(lp36
S'd496a8ddf556a2097f49e780ff26ec38_3240'
p37
aS'c1145db43a83fa9721160a9b0ba43a63_3160'
p38
aS'1f2366c3955cf09b599a8a9233367cac_3188'
p39
aS'2872821c2d87ae14a98e0017cffb4434_3132'
p40
aS'c5e453ce174407cc2796c5f3444cc2c6_3172'
p41
aS'504084a3a098a94ac2cd6c1d2c6ed357_3092'
p42
aS'b435648fcba6306bccc01c50c0785651_3240'
p43
atp44
sI868
(g1
(g5
S'b-\xc5&\x14\xce\xc0?'
p45
tp46
Rp47
(lp48
S'd5036353d1b1b9018c4443442ff8c68b_3216'
p49
aS'a0a01b4cf56dee146e3cf4701c203547_3356'
p50
aS'a0a01b4cf56dee146e3cf4701c203547_3252'
p51
aS'82cf1e67ed155da7e89fc4f49b97050d_3228'
p52
aS'82cf1e67ed155da7e89fc4f49b97050d_3288'
p53
aS'2a8d402d0698b7d07fbeebce048df50b_3252'
p54
aS'c3ea3ad31e662953f0fcd1c62c50b130_3212'
p55
aS'c3ea3ad31e662953f0fcd1c62c50b130_3156'
p56
aS'5170d63bcfe818f0cbbdb0ea5f11726f_3304'
p57
aS'90ff8f17742e35022a36473867119d85_3196'
p58
aS'da41f2156f15ba570552b4c2cde2d906_3144'
p59
atp60
sI904
(g1
(g5
S'\xf6\xe6a\xf5#\xce\xd3?'
p61
tp62
Rp63
(lp64
S'31031b0783dea6906977abae83ab022d_3252'
p65
aS'940f7e9ab19be7a9ce0008a6e6b01f9f_3216'
p66
aS'd5229b1ba9ac805a1e7c0b871bd1eb96_3072'
p67
aS'a3d453875aea8d2def1aa20f22bd33dc_3160'
p68
aS'29fa30bb9dd612507b28bf4ec36f0372_3132'
p69
aS'd2276a5243924db8aac9fb6f0a3bd408_3292'
p70
aS'3002038e55383b4e1d14abc7182a1e78_3236'
p71
aS'27546542eea38e818e2ac51d4ec9775f_3252'
p72
aS'28e17f1e110f3508ceb611839986a4f4_3164'
p73
aS'c4f1656879c4772eefb301379a510721_3188'
p74
aS'260e166c56a4340962aa2bc2cae3eb43_3180'
p75
aS'd5aafe1af9449d87262a5016f0993d99_3180'
p76
aS'd2e9862303ae42959b733f11a168e268_3048'
p77
aS'a2593ed0e66611da58ad2fcdca426cdb_3156'
p78
aS'61fd4cac9f5429d14d015e7632e3514a_3244'
p79
aS'a4207e48739ab4da384acaeebcba0c66_3128'
p80
aS'b77f1865e955be2b1ffe866f54d2b261_3124'
p81
aS'930bc9f36310286d105c318a96264eba_336'
p82
aS'81c2d13624f473c10f9866dee8ce79fb_3132'
p83
aS'84870116484818d0428a2303dabdd37b_3176'
p84
aS'51b69c710ade0340e86daf70c8a07e12_3176'
p85
aS'23377b24ad28def0c5954adcf74a8a05_3320'
p86
aS'c1f844e0d2a6b7fdeddc9d6758a1e499_3168'
p87
aS'2a3f0f96e4cc7ae13558d80d99426233_3124'
p88
aS'c121f821dc6853574777f3bdf6a68c5a_3116'
p89
aS'2173f89db89fd55a2d92eb824cd6e4f4_2908'
p90
aS'5116f8d8c31a4e458c4a633c04082ebd_3208'
p91
aS'd0c4bba46e68e0ff5efce1297faa3b49_3148'
p92
aS'27f348177560314182f161d9ee90b999_3140'
p93
aS'246920c3ec29d419549fadefd78c30e4_3260'
p94
aS'90489a23cb732ae082adf3def0b5d243_3212'
p95
aS'225a739c4a77c0851f5486f6208ef5b7_3148'
p96
atp97
sI905
(g1
(g5
S'\xf6\x00\xa3\xec\xa9,\xd5?'
p98
tp99
Rp100
(lp101
S'31031b0783dea6906977abae83ab022d_3316'
p102
aS'd5229b1ba9ac805a1e7c0b871bd1eb96_3148'
p103
aS'2173f89db89fd55a2d92eb824cd6e4f4_3020'
p104
aS'5116f8d8c31a4e458c4a633c04082ebd_3288'
p105
aS'a3d453875aea8d2def1aa20f22bd33dc_3280'
p106
aS'51b69c710ade0340e86daf70c8a07e12_3320'
p107
aS'23377b24ad28def0c5954adcf74a8a05_3416'
p108
aS'c1f844e0d2a6b7fdeddc9d6758a1e499_3244'
p109
aS'833562ee3e3a2569fe42a303d5619464_3088'
p110
aS'246920c3ec29d419549fadefd78c30e4_3396'
p111
aS'2a3f0f96e4cc7ae13558d80d99426233_3296'
p112
atp113
sI907
(g1
(g5
S'\x91]6(\x04\x1c\xd6?'
p114
tp115
Rp116
(lp117
S'942a444c928e47cf47454eccbe5da352_3160'
p118
aS'717c6535d2743d25384de477af509559_3280'
p119
aS'a1e68c58d8bce6639dd5ec2e4bccb79c_3224'
p120
aS'22f1e10e563130d67bb55961a7271447_3188'
p121
aS'949304663e15ab1dcd9a0781b6d871d8_3148'
p122
aS'25bc7a8af105eb9ac6feb54e16ae741f_3340'
p123
aS'da508d53f4f904089d63e059be87e431_3188'
p124
aS'd91a6687f9760b20e5aa4e88cf8b18a8_3180'
p125
aS'060c18ffe4b4f8b47c90a2339533d622_3148'
p126
aS'1000511f9f867a3ee51cb91e7d922e99_3256'
p127
aS'81f727efa7f0977b86ed3581e159b219_3156'
p128
aS'902e9898276a9dd149301756092550ce_3228'
p129
aS'22e2fe27211a28c8cc5b67d498824743_3280'
p130
aS'35a94ca04d07c9427c78d1befc431ea6_3252'
p131
aS'b2b712a7e0f486a0eddfb412f06a6c21_3064'
p132
aS'b3b15c3261e48f4d001b08fc900f40af_3152'
p133
aS'237c4e337993167ea887286c61844807_3152'
p134
aS'b0600327e25557f457e477594e3684e6_3016'
p135
aS'24ef90755c68c3f2f6d4f8805615bad6_3244'
p136
aS'd1f8897c649bd60080c8b1d7027785d9_3168'
p137
aS'c3ec90236977ee3e046c466cbb04d031_3280'
p138
aS'a1565742cfdebc0d7b21f2dba34a4c5c_3212'
p139
aS'd0aec3d90e153c188c76206a672014b7_3148'
p140
aS'62f6ca088970853ccb2fd794cc65bf65_3308'
p141
aS'b5088c9af7eeb7d2d966881a017384b6_3120'
p142
aS'a1fd67af4edfb346a8c8abaab5e1cc7b_3128'
p143
aS'd8762c8cea86083ce9a3aec9aedb109f_3008'
p144
aS'2ab814305cf1db748057a4bc313fb503_3160'
p145
aS'9271df78c6f33488bae8d9ab82a47440_3200'
p146
aS'c3c7402347a313740a7a10edc33cb4c5_3204'
p147
aS'a2c9cd82e2c0388d6d4b4dcbd5895a48_3184'
p148
aS'd7f83cb68543a60efc18de6afeda3afd_3204'
p149
aS'a3512f81f74bab766b8d55d6480ea245_3212'
p150
aS'569db7273547dfb2a0e6016e166bf275_3188'
p151
aS'b5a875aee144f95bcefcdb7f6daea440_3224'
p152
aS'a49ab036c70167ff9894e142cfd279aa_3280'
p153
aS'06dc60ab51a3ba87757726f7a085d9d5_3176'
p154
aS'a26b2ba079e8616c8ce35f3533bc45ec_3140'
p155
aS'b768c2760776c66dfed69d4ea0b60d1c_3184'
p156
aS'd293b63ea6e67eb88cd85980e25c3642_3188'
p157
aS'170e99072c8840704e784d3ecde647a5_3204'
p158
aS'807090991f3da3c1132f2b5dec7511a3_3220'
p159
aS'34659a10411968d7d954928aef20ae6a_3080'
p160
aS'5600702668f1886cd37782f53a34d316_3156'
p161
aS'5375fd472c9c4dbb143a89796571cc9e_3216'
p162
aS'b0576ac96f4dd6b5ec82566b5f63f651_3144'
p163
aS'957713c3f6e5549e5f24661aefbb5edd_3144'
p164
aS'b67c317f6397fde0790290046ab3ff1b_3212'
p165
aS'54269539f16af2bdac6ae146e1b934a1_3144'
p166
aS'b3f2970a3b5196f28dc56ed39f2b2508_3140'
p167
aS'a0113172ad9bd171c0075626f04fc224_3184'
p168
aS'd1441c9c8de5c7f597fa7e2f1f7f222a_3240'
p169
aS'a41cc0879fc07afd76ada851d99667e4_3200'
p170
aS'84bc4455b4ecc97a6e95241beb6cd2f5_3144'
p171
aS'33d9e187ca5c19d9e6ff43cf7705e72b_3244'
p172
aS'94d0442c0563b5bfddc6d683bd0d9087_3164'
p173
aS'a3eab7ad23bc677f8513f374ba596b92_3256'
p174
aS'a4b8c9fbbc6c509fe9c1733141e611d7_3220'
p175
aS'861d9037f8ec7b8b2d01dad44ec6a524_3144'
p176
aS'd3073b32b203148082cc15ec46f5105f_3156'
p177
aS'b142b8399b09e535dc73a1924b0e5daa_3080'
p178
atp179
sI845
(g1
(g5
S'@aG\xeb\xc1\x07\xaf?'
p180
tp181
Rp182
(lp183
S'82281825ed1452977a764643428d9976_3176'
p184
aS'a1a5a8d4da63f6744874190a4ce6ba5f_3268'
p185
aS'82a0f36bad3db10cda8bdd8601348959_3200'
p186
aS'309985e32deb3b6a2b548cef840701f5_3184'
p187
aS'a2e80512b72f013c89ed2884d39e1eeb_3076'
p188
aS'a13302780b76aa7f678c83052e1f80f5_3124'
p189
aS'51d181bc9524248559dff26725b05bb8_3144'
p190
aS'b242c1cb8ca5b84b129bffea7bc76fae_3064'
p191
aS'043121379d4a5f0f227d74ef0336428c_3260'
p192
aS'81ec8dd3f588bacf6fe3ca4744dabd85_3108'
p193
aS'523bf273741a7c82eda8509ff5a350b4_3188'
p194
aS'23c7c4f6fc13fdcc9e0959aabfdafe0e_3092'
p195
aS'4037115559746cfd5c865a9f713c2625_3148'
p196
aS'905cc1fc0b25d293cc9c053c6e70919c_3252'
p197
aS'5075e81a944c44aa4701d94a80c0cccc_3176'
p198
aS'241d19df78ba083825ad379426fc7a5c_3076'
p199
aS'b45a2b6017d85fba450c60e97994367d_3264'
p200
aS'a17b9b402096a12c4d9e7f1c57a61133_3260'
p201
aS'c2dd0c2d9416183ab132052c7f389db9_3160'
p202
aS'5177141306a32b6af318f0aa674c716b_3252'
p203
aS'60ef32102d1ae0d8bfa046757739edcd_3228'
p204
aS'd288e9a5bbd77711399f985584d374a6_3140'
p205
aS'109384695f396badeedd8e171b31b734_3184'
p206
aS'50ba51bc86d689f324d7ca27d0a7eb52_3296'
p207
aS'2017146d4cec9afb3f477f8a541e5aa1_3204'
p208
aS'1037b8385f3eb7f7ed6cbdf4251b5fa2_3172'
p209
aS'b1def3ea5f4f716e30b561cbbfa7dbc7_3032'
p210
aS'0278192ce1aa7f8c4ae746eae73e6475_3204'
p211
aS'263bde02a8c2daa812ae145e9efcda4d_3232'
p212
aS'b174b9754af5e723a047b1093d96593b_3152'
p213
aS'c16825d05bbb35c0d36120011c6d666f_3192'
p214
aS'519b94ba9a84b4ede97b7478cefacf65_3164'
p215
aS'a33580103ea07f5f24cbda7500c28781_3040'
p216
aS'1088046dcb34429d55d4695cf3b28301_3232'
p217
aS'236740b7cbf84cc3e11e009499392313_3164'
p218
aS'913cf9179e7dc56363673a926eaf5b7b_3204'
p219
aS'51c2c4afe76bcd179ba83619b4840c71_3120'
p220
aS'5032e7e1f8cd2a9cee4dba605bb71c39_2812'
p221
aS'324ed762499093ef9cd82d8e346070dc_3088'
p222
atp223
sI909
(g1
(g5
S'}\xa0GR\xf3\x91\xd6?'
p224
tp225
Rp226
(lp227
S'd695c2c7d9718238bd95b354a147c775_3128'
p228
aS'c55c1627f5bf9fc6d85ea6e8501dbf78_3100'
p229
aS'33ba5ee592067b75ac74aceb66170787_2836'
p230
aS'd108622979a9586df24338f535b3f047_3160'
p231
aS'31b164b4dc1d2744bf11183604572648_3200'
p232
aS'17b48167db6bcb087412b8a047446331_3156'
p233
aS'60e777d78106b7f803ee6bf5b74d317d_3244'
p234
aS'7070e73ac6795a8a02270381fcdfb99b_3200'
p235
aS'337da6c8942095e6f1359325676f05ef_3212'
p236
aS'26914ea7c65538ef9954b779ab7dc280_3236'
p237
aS'93c213c3c09cfaf1de11b23469071368_3208'
p238
aS'd381dc0651aee234b7d59c06800049c4_3116'
p239
aS'60d3d41ae03d24038520a7dee6a0abbc_3224'
p240
aS'340c63ed7d513d67cf007983d34e6f68_3032'
p241
aS'5169113d8207a5605ff57604a00c030a_2840'
p242
aS'a0f2e27b28835c96377b73b007c09f15_3148'
p243
aS'518c227fc67926213502da39d8d44fd6_3184'
p244
aS'811c47bd9f7347318794f59a8230c180_3268'
p245
aS'52cd8c9cc8c4e794e9243d787853f556_3072'
p246
aS'2c05a699fcdd02c4a3e982543363fa44_3256'
p247
aS'c408d44ff050d84a6679c88b6c156ca7_3132'
p248
aS'a4756d0fb104b86ec1c6cbbb23a2c45b_3228'
p249
aS'2b0d1f7527e0191f190744e8a1e319c3_2828'
p250
aS'31ad1a73583f2d44e741747e4fc4dbe0_3188'
p251
atp252
sI912
(g1
(g5
S'\x92OQ\xf8\xf1\xb1\xd8?'
p253
tp254
Rp255
(lp256
S'd422d21370469217ba738e5fad136265_3224'
p257
aS'82ec14e682cb0322129fb4e42304962d_3236'
p258
aS'83f04b9aebe38cb456cf68f206b0f688_3288'
p259
aS'c1d930795f3c26cbdd2c22df3021c644_3248'
p260
aS'b3f691d4f0fe5ac993b75b559046bdd5_3160'
p261
aS'316ec8b680b5376072bff5338c5eae20_3228'
p262
aS'd65cd3137858bb17f8b9b7fb0964815f_3148'
p263
aS'51fc857e648ed394fc515417ee04c633_3188'
p264
aS'c181c5ad7bee8a1f0e87bf31701c8a43_3124'
p265
aS'd287f3dc57fd03a527747396a3a901b5_3276'
p266
aS'80818bc6491f5ec1b58d2058ba24fb44_3284'
p267
aS'd47eecfdc44e101c2d7a2c81e6f21156_3176'
p268
aS'512fe4ffc612470c04c57b501c8a7828_3188'
p269
aS'd11e481c9d30e80ffc55c706ffb30f11_3164'
p270
aS'8377ec4ff4663a70419490020f2ac13d_3112'
p271
aS'08261732bfcae9a06c7fd6e6f76b2a81_3168'
p272
aS'b10f6b10bd09dec312300bae2214e183_3112'
p273
aS'd411eb6d3dd126922f1e18122ea2e346_3160'
p274
aS'd6e0cbadf6d62c8fc034954878bdf7b6_3208'
p275
aS'a30bbae84906c52d3f3c156994e58843_3276'
p276
aS'32cd2f076bb1984aed598750d30d212d_3324'
p277
aS'a2d9835a375e0d31347266746f62b864_3144'
p278
aS'd5f408d4570f4d65c796bca3953704de_3204'
p279
aS'b4081a8b806461abf0bdfbe081d6a691_3216'
p280
aS'30d69e8b5389b4a4e2f727d846cacee9_3100'
p281
aS'a4c97b2f23a8983d0a43301dfb19db69_3180'
p282
aS'53d5d20ac42c9e42d55b9a9dcc3fc344_3172'
p283
aS'8523f5ace7369187b1f55c2066a82836_3232'
p284
aS'd7ce189248c81102a9a4e7ba74a146f8_3284'
p285
aS'325e833996f116a6a24d5567ba2aefe3_3340'
p286
aS'407ced5a43dbf4610acd2441ba62e125_3180'
p287
aS'0006dfb19193ff5910b3ffc94a29a7f6_3156'
p288
aS'a429bfdadd70794a59885fe2a53dd6ee_3224'
p289
aS'305303294ae289f97ceacc37112afcba_3096'
p290
aS'33b0342851a544405b68e3f957499c13_3156'
p291
aS'5550b32b309572142b91577fa1a6112a_3276'
p292
aS'5550b32b309572142b91577fa1a6112a_3380'
p293
aS'703b754ea67898da46ed27e0527f6ce7_3268'
p294
aS'707e73f2f46c9bf3afca84e05b895862_3252'
p295
aS'9141498693d7df7a60b1894ca6417fcd_3264'
p296
aS'2589f45b78daf51f1f4412f743387d90_3288'
p297
aS'b6b51779559b5f20eccc04b0b20bf1fc_3188'
p298
aS'3429dc19d8d5f100f3d3fe403cc72726_3152'
p299
aS'317624f2903ffa72ac040e87e36f1645_3088'
p300
aS'5033a94c6c7dd21d15615ca6d7992147_3376'
p301
aS'90bc59dafe96c97402785b619dcfdd21_3300'
p302
aS'd3b55fd8e844379a98c9e9d6ebe63175_3284'
p303
aS'005528c99846dfd84e7a29ae2cf18fd8_3208'
p304
aS'c2364137e928f9fd1cd1d62c5b19bd3c_3072'
p305
aS'c2118c4184e53db52b1ba3d58ffe15f6_3280'
p306
aS'249e49943601cb7182c7cf47b37a8598_3312'
p307
aS'70e399acca62e88cc86d9d3dc0eb50fe_2860'
p308
aS'815a763f2c764a33094625aedb37d9ef_3280'
p309
aS'd16a128f17d909a42dbfe0e396003fad_3084'
p310
aS'c40f9f7eea18ede8f0f6ed40f3e8d39e_3148'
p311
aS'802660d278ba369c56a1bc7a31baa265_3148'
p312
aS'b32a53310f561ef383c8c4dd3ccb5d1b_3212'
p313
aS'81823bb1c8598eed93c96cab959c2f74_448'
p314
aS'808ab4f1cca8091b05d26f15f775c525_3140'
p315
aS'b4ecab3de919dc6f8095a3b462524597_3060'
p316
aS'b12e66515990aba2ca11fd4e72959f42_3124'
p317
aS'528360b3ff12866c8de7fb90369cf6a4_3232'
p318
aS'290a6595331647dc0f7b8c20f8ca38a3_3296'
p319
aS'd5ebf976acd93ae86bc92b49273ebbd2_3136'
p320
aS'b1961865622a279d82ceffa4dc0fc414_3256'
p321
aS'02c27a2e4c215d22fabdfc7b46fd6f20_3300'
p322
aS'34dc911577554e81eee75cfe0fe709ff_3104'
p323
aS'86060592b44f5796e297d495f5aaee4f_3180'
p324
aS'20f246783e49bd5d1d7d90662e97a9e9_3252'
p325
aS'b247b6b602fbfeafd096088a56f6ffb9_3152'
p326
aS'819cf75b209768d2083ee84059ec294f_3224'
p327
aS'961bac503db82b784e6f37dd9d0cebf6_3224'
p328
aS'33cc90da028fd1db12c21ac77b6c2532_3280'
p329
aS'd67a719d72e33099bcc28e25249e8799_3208'
p330
aS'202cfbaccc16ecbfe4c8f544ebf50ded_3068'
p331
aS'c097e3603b5903d6f7c65038d69b7285_3088'
p332
aS'b271dbd8ad7519eab3e5e9008013623e_3240'
p333
aS'a607dd2dc35f0a24e010756620c19227_3092'
p334
aS'509c649dd40ee219afd6c41e25e38d36_3164'
p335
aS'578adec078a8c12a19ab07a4e64cf3b2_3200'
p336
aS'c323aabad606d27b03ca7182cfe66f1a_3252'
p337
aS'7183044ef3d566ed8d109695648ff7f9_3228'
p338
aS'33a6249e0f094d64bda9660f3294c1ba_3064'
p339
aS'347bad094f00c9013f59a07e1647e939_3320'
p340
aS'c603502225770041c03fd732837719c8_3148'
p341
aS'55da555e75ab922f7dfcceb1209289b3_3116'
p342
atp343
sI725
(g1
(g5
S'\xfc\xa9\xf1\xd2Mb`?'
p344
tp345
Rp346
(lp347
S'd1f35ba9bee466133d93bf161ad6172b_3152'
p348
aS'52149c30b1c49a7a5a6a9e119b999715_3208'
p349
aS'560ed485d9b62ad9632b8d7d20b266ce_3180'
p350
aS'd20135f6ce0705c0f627bd0d40d1448a_3208'
p351
aS'221bdade3f1bd0dd211025fdc859055b_3248'
p352
aS'd203e861230e719e0a74031bd55ccd4e_3128'
p353
aS'c2b5874fc252386e39b1481b375fd68f_2804'
p354
atp355
sI855
(g1
(g5
S'b\x84\xf7\x8e\x19\xc8\xb5?'
p356
tp357
Rp358
(lp359
S'c55c1627f5bf9fc6d85ea6e8501dbf78_3336'
p360
aS'c55c1627f5bf9fc6d85ea6e8501dbf78_3128'
p361
aS'c55c1627f5bf9fc6d85ea6e8501dbf78_3288'
p362
aS'c55c1627f5bf9fc6d85ea6e8501dbf78_3220'
p363
aS'31b164b4dc1d2744bf11183604572648_3392'
p364
aS'31b164b4dc1d2744bf11183604572648_3336'
p365
aS'31b164b4dc1d2744bf11183604572648_3244'
p366
aS'31b164b4dc1d2744bf11183604572648_3436'
p367
aS'337da6c8942095e6f1359325676f05ef_3380'
p368
aS'337da6c8942095e6f1359325676f05ef_3432'
p369
aS'337da6c8942095e6f1359325676f05ef_3240'
p370
aS'337da6c8942095e6f1359325676f05ef_3320'
p371
aS'5169113d8207a5605ff57604a00c030a_2968'
p372
aS'5169113d8207a5605ff57604a00c030a_3028'
p373
aS'5169113d8207a5605ff57604a00c030a_2872'
p374
aS'5169113d8207a5605ff57604a00c030a_3072'
p375
aS'518c227fc67926213502da39d8d44fd6_3220'
p376
aS'518c227fc67926213502da39d8d44fd6_3380'
p377
aS'518c227fc67926213502da39d8d44fd6_3324'
p378
aS'518c227fc67926213502da39d8d44fd6_3440'
p379
aS'52cd8c9cc8c4e794e9243d787853f556_3100'
p380
aS'52cd8c9cc8c4e794e9243d787853f556_3192'
p381
aS'52cd8c9cc8c4e794e9243d787853f556_3244'
p382
aS'52cd8c9cc8c4e794e9243d787853f556_3292'
p383
aS'a4756d0fb104b86ec1c6cbbb23a2c45b_3460'
p384
aS'a4756d0fb104b86ec1c6cbbb23a2c45b_3412'
p385
aS'a4756d0fb104b86ec1c6cbbb23a2c45b_3348'
p386
aS'a4756d0fb104b86ec1c6cbbb23a2c45b_3260'
p387
aS'2b0d1f7527e0191f190744e8a1e319c3_3052'
p388
aS'2b0d1f7527e0191f190744e8a1e319c3_2860'
p389
aS'2b0d1f7527e0191f190744e8a1e319c3_3000'
p390
aS'2b0d1f7527e0191f190744e8a1e319c3_2952'
p391
atp392
sI900
(g1
(g5
S'}\\v\xe38\x0e\xd1?'
p393
tp394
Rp395
(lp396
S'c55c1627f5bf9fc6d85ea6e8501dbf78_tmp_3324'
p397
aS'c55c1627f5bf9fc6d85ea6e8501dbf78_tmp_3116'
p398
aS'c55c1627f5bf9fc6d85ea6e8501dbf78_tmp_3280'
p399
aS'c55c1627f5bf9fc6d85ea6e8501dbf78_tmp_3212'
p400
aS'337da6c8942095e6f1359325676f05ef_tmp_3424'
p401
aS'31b164b4dc1d2744bf11183604572648_tmp_3328'
p402
aS'31b164b4dc1d2744bf11183604572648_tmp_3232'
p403
aS'337da6c8942095e6f1359325676f05ef_tmp_3312'
p404
aS'337da6c8942095e6f1359325676f05ef_tmp_3364'
p405
aS'337da6c8942095e6f1359325676f05ef_3228'
p406
aS'31b164b4dc1d2744bf11183604572648_tmp_3428'
p407
aS'd695c2c7d9718238bd95b354a147c775_tmp_3152'
p408
aS'5169113d8207a5605ff57604a00c030a_tmp_3064'
p409
aS'5169113d8207a5605ff57604a00c030a_tmp_2956'
p410
aS'5169113d8207a5605ff57604a00c030a_tmp_3008'
p411
aS'5169113d8207a5605ff57604a00c030a_tmp_2860'
p412
aS'518c227fc67926213502da39d8d44fd6_tmp_3432'
p413
aS'518c227fc67926213502da39d8d44fd6_tmp_3204'
p414
aS'518c227fc67926213502da39d8d44fd6_tmp_3372'
p415
aS'518c227fc67926213502da39d8d44fd6_tmp_3316'
p416
aS'52cd8c9cc8c4e794e9243d787853f556_tmp_3080'
p417
aS'52cd8c9cc8c4e794e9243d787853f556_tmp_3184'
p418
aS'52cd8c9cc8c4e794e9243d787853f556_tmp_3236'
p419
aS'52cd8c9cc8c4e794e9243d787853f556_tmp_3284'
p420
aS'a4756d0fb104b86ec1c6cbbb23a2c45b_tmp_3404'
p421
aS'a4756d0fb104b86ec1c6cbbb23a2c45b_tmp_3340'
p422
aS'a4756d0fb104b86ec1c6cbbb23a2c45b_tmp_3244'
p423
aS'2b0d1f7527e0191f190744e8a1e319c3_tmp_3044'
p424
aS'2b0d1f7527e0191f190744e8a1e319c3_tmp_2848'
p425
aS'2b0d1f7527e0191f190744e8a1e319c3_tmp_2988'
p426
aS'2b0d1f7527e0191f190744e8a1e319c3_tmp_2944'
p427
aS'd108622979a9586df24338f535b3f047_tmp_3184'
p428
aS'a4756d0fb104b86ec1c6cbbb23a2c45b_tmp_3452'
p429
aS'31b164b4dc1d2744bf11183604572648_tmp_3384'
p430
atp431
sI890
(g1
(g5
S'\x1d\xcaI[n\xa6\xc8?'
p432
tp433
Rp434
(lp435
S'c4f1656879c4772eefb301379a510721_3228'
p436
aS'd5aafe1af9449d87262a5016f0993d99_3216'
p437
aS'260e166c56a4340962aa2bc2cae3eb43_3224'
p438
aS'd2e9862303ae42959b733f11a168e268_3096'
p439
aS'61fd4cac9f5429d14d015e7632e3514a_3284'
p440
aS'a2593ed0e66611da58ad2fcdca426cdb_3208'
p441
aS'a4207e48739ab4da384acaeebcba0c66_3184'
p442
aS'225a739c4a77c0851f5486f6208ef5b7_3200'
p443
aS'd0c4bba46e68e0ff5efce1297faa3b49_3200'
p444
aS'd2276a5243924db8aac9fb6f0a3bd408_3340'
p445
aS'84870116484818d0428a2303dabdd37b_3216'
p446
aS'27546542eea38e818e2ac51d4ec9775f_3304'
p447
aS'27f348177560314182f161d9ee90b999_3188'
p448
aS'3002038e55383b4e1d14abc7182a1e78_3260'
p449
aS'c121f821dc6853574777f3bdf6a68c5a_3168'
p450
aS'b77f1865e955be2b1ffe866f54d2b261_3164'
p451
aS'930bc9f36310286d105c318a96264eba_3140'
p452
aS'28e17f1e110f3508ceb611839986a4f4_3208'
p453
aS'81c2d13624f473c10f9866dee8ce79fb_3172'
p454
aS'90489a23cb732ae082adf3def0b5d243_3272'
p455
aS'940f7e9ab19be7a9ce0008a6e6b01f9f_3256'
p456
atp457
sI895
(g1
(g5
S'\xe8\x1aC\x98w\xf2\xcb?'
p458
tp459
Rp460
(lp461
S'd422d21370469217ba738e5fad136265_3200'
p462
aS'90bc59dafe96c97402785b619dcfdd21_3276'
p463
aS'407ced5a43dbf4610acd2441ba62e125_3144'
p464
aS'a30bbae84906c52d3f3c156994e58843_3240'
p465
aS'249e49943601cb7182c7cf47b37a8598_3268'
p466
aS'c181c5ad7bee8a1f0e87bf31701c8a43_3100'
p467
aS'316ec8b680b5376072bff5338c5eae20_3164'
p468
aS'd65cd3137858bb17f8b9b7fb0964815f_3128'
p469
aS'32abc951d6c707d2036c9e2a50e5fcb6_2808'
p470
aS'961bac503db82b784e6f37dd9d0cebf6_3192'
p471
aS'c40f9f7eea18ede8f0f6ed40f3e8d39e_3120'
p472
aS'33cc90da028fd1db12c21ac77b6c2532_3256'
p473
aS'd411eb6d3dd126922f1e18122ea2e346_3136'
p474
aS'03c009b451e012002513513a5d7e1b00_3300'
p475
aS'b32a53310f561ef383c8c4dd3ccb5d1b_3180'
p476
aS'53d5d20ac42c9e42d55b9a9dcc3fc344_3140'
p477
aS'b271dbd8ad7519eab3e5e9008013623e_3216'
p478
aS'8523f5ace7369187b1f55c2066a82836_3200'
p479
aS'c223ce8475dad31d490377183fe057be_3236'
p480
aS'c223ce8475dad31d490377183fe057be_3132'
p481
aS'c097e3603b5903d6f7c65038d69b7285_3072'
p482
aS'70e399acca62e88cc86d9d3dc0eb50fe_2832'
p483
aS'808ab4f1cca8091b05d26f15f775c525_3120'
p484
aS'83f04b9aebe38cb456cf68f206b0f688_3248'
p485
aS'55da555e75ab922f7dfcceb1209289b3_3088'
p486
aS'b4ecab3de919dc6f8095a3b462524597_3020'
p487
aS'b10f6b10bd09dec312300bae2214e183_3088'
p488
aS'a429bfdadd70794a59885fe2a53dd6ee_3200'
p489
aS'd7ce189248c81102a9a4e7ba74a146f8_3256'
p490
aS'305303294ae289f97ceacc37112afcba_3072'
p491
aS'290a6595331647dc0f7b8c20f8ca38a3_3264'
p492
aS'32ce3a2536052169e1ec9be6f493d92c_3272'
p493
aS'2272d05b959f133bcf3e38c48ddbfcad_3208'
p494
aS'c32e9387f94c67a39d4c35b111302b0b_3140'
p495
aS'b1961865622a279d82ceffa4dc0fc414_3224'
p496
aS'707e73f2f46c9bf3afca84e05b895862_3228'
p497
aS'c2118c4184e53db52b1ba3d58ffe15f6_3256'
p498
aS'9141498693d7df7a60b1894ca6417fcd_3244'
p499
aS'7183044ef3d566ed8d109695648ff7f9_3208'
p500
aS'b6b51779559b5f20eccc04b0b20bf1fc_3168'
p501
aS'c2364137e928f9fd1cd1d62c5b19bd3c_3056'
p502
aS'a0ceb22ed87df9019f39c5c135a58c17_3188'
p503
aS'5033a94c6c7dd21d15615ca6d7992147_3340'
p504
aS'32ce3a2536052169e1ec9be6f493d92c_3356'
p505
atp506
s.