(dp0
S'b12e66515990aba2ca11fd4e72959f42'
p1
S'loadmoney'
p2
sS'5375fd472c9c4dbb143a89796571cc9e'
p3
S'firseria'
p4
sS'b67c317f6397fde0790290046ab3ff1b'
p5
S'firseria'
p6
sS'26914ea7c65538ef9954b779ab7dc280'
p7
S'artemis'
p8
sS'c181c5ad7bee8a1f0e87bf31701c8a43'
p9
S'hype'
p10
sS'd3073b32b203148082cc15ec46f5105f'
p11
S'firseria'
p12
sS'5116f8d8c31a4e458c4a633c04082ebd'
p13
S'graftor'
p14
sS'35a94ca04d07c9427c78d1befc431ea6'
p15
S'firseria'
p16
sS'27f348177560314182f161d9ee90b999'
p17
S'appsinstaller'
p18
sS'94d0442c0563b5bfddc6d683bd0d9087'
p19
S'firseria'
p20
sS'528360b3ff12866c8de7fb90369cf6a4'
p21
S'downloader-frk'
p22
sS'd8762c8cea86083ce9a3aec9aedb109f'
p23
S'sality'
p24
sS'60a9a5f28d2dd295daab51d2b977cc01'
p25
S'reputation'
p26
sS'c097e3603b5903d6f7c65038d69b7285'
p27
S'loadmoney'
p28
sS'28e17f1e110f3508ceb611839986a4f4'
p29
S'fiseria'
p30
sS'811c47bd9f7347318794f59a8230c180'
p31
S'downloadadmin'
p32
sS'33a38040289cb673ebcce042471d35ff'
p33
S'artemis'
p34
sS'b435648fcba6306bccc01c50c0785651'
p35
S'dealply'
p36
sS'a41cc0879fc07afd76ada851d99667e4'
p37
S'firseria'
p38
sS'53d5d20ac42c9e42d55b9a9dcc3fc344'
p39
S'ipz'
p40
sS'd67a719d72e33099bcc28e25249e8799'
p41
S'loadmoney'
p42
sS'03c009b451e012002513513a5d7e1b00'
p43
S'kazy'
p44
sS'246920c3ec29d419549fadefd78c30e4'
p45
S'graftor'
p46
sS'83f04b9aebe38cb456cf68f206b0f688'
p47
S'ipz'
p48
sS'263bde02a8c2daa812ae145e9efcda4d'
p49
S'famvt'
p50
sS'c1f844e0d2a6b7fdeddc9d6758a1e499'
p51
S'graftor'
p52
sS'237c4e337993167ea887286c61844807'
p53
S'optimuminstaller'
p54
sS'82281825ed1452977a764643428d9976'
p55
S'famvt'
p56
sS'51d181bc9524248559dff26725b05bb8'
p57
S'famvt'
p58
sS'a607dd2dc35f0a24e010756620c19227'
p59
S'hfsautob'
p60
sS'd2276a5243924db8aac9fb6f0a3bd408'
p61
S'fiseria'
p62
sS'b174b9754af5e723a047b1093d96593b'
p63
S'famvt'
p64
sS'c603502225770041c03fd732837719c8'
p65
S'wasamalax'
p66
sS'a3d453875aea8d2def1aa20f22bd33dc'
p67
S'graftor'
p68
sS'33b0342851a544405b68e3f957499c13'
p69
S'loadmoney'
p70
sS'd2e9862303ae42959b733f11a168e268'
p71
S'appsinstall'
p72
sS'31b164b4dc1d2744bf11183604572648'
p73
S'somoto'
p74
sS'a2d9835a375e0d31347266746f62b864'
p75
S'loadmoney'
p76
sS'22f1e10e563130d67bb55961a7271447'
p77
S'firseria'
p78
sS'3002038e55383b4e1d14abc7182a1e78'
p79
S'graftor'
p80
sS'b2b712a7e0f486a0eddfb412f06a6c21'
p81
S'firseria'
p82
sS'c2364137e928f9fd1cd1d62c5b19bd3c'
p83
S'ipz'
p84
sS'20f246783e49bd5d1d7d90662e97a9e9'
p85
S'loadmoney'
p86
sS'a0ceb22ed87df9019f39c5c135a58c17'
p87
S'kazy'
p88
sS'c1145db43a83fa9721160a9b0ba43a63'
p89
S'artemis'
p90
sS'707e73f2f46c9bf3afca84e05b895862'
p91
S'ipz'
p92
sS'4037115559746cfd5c865a9f713c2625'
p93
S'famvt'
p94
sS'b1def3ea5f4f716e30b561cbbfa7dbc7'
p95
S'famvt'
p96
sS'109384695f396badeedd8e171b31b734'
p97
S'famvt'
p98
sS'2a3f0f96e4cc7ae13558d80d99426233'
p99
S'bettersurf'
p100
sS'c3ea3ad31e662953f0fcd1c62c50b130'
p101
S'zusy'
p102
sS'1036837a1c94b6568a6596077452a19a'
p103
S'tnega'
p104
sS'd496a8ddf556a2097f49e780ff26ec38'
p105
S'toolbarinstaller'
p106
sS'2173f89db89fd55a2d92eb824cd6e4f4'
p107
S'graftor'
p108
sS'c3a2824e183d10930fa13a27b85186cb'
p109
S'koobface'
p110
sS'34659a10411968d7d954928aef20ae6a'
p111
S'firseria'
p112
sS'316ec8b680b5376072bff5338c5eae20'
p113
S'ipz'
p114
sS'60d3d41ae03d24038520a7dee6a0abbc'
p115
S'generickd'
p116
sS'd15a3109da6635b766b2e7e2a3974f7e'
p117
S'domal'
p118
sS'52149c30b1c49a7a5a6a9e119b999715'
p119
S'artemis'
p120
sS'80818bc6491f5ec1b58d2058ba24fb44'
p121
S'loadmoney'
p122
sS'02c27a2e4c215d22fabdfc7b46fd6f20'
p123
S'loadmoney'
p124
sS'569db7273547dfb2a0e6016e166bf275'
p125
S'firseria'
p126
sS'b45a2b6017d85fba450c60e97994367d'
p127
S'famvt'
p128
sS'b3f691d4f0fe5ac993b75b559046bdd5'
p129
S'pup-fjg'
p130
sS'c3ec90236977ee3e046c466cbb04d031'
p131
S'firseria'
p132
sS'225a739c4a77c0851f5486f6208ef5b7'
p133
S'graftor'
p134
sS'a2593ed0e66611da58ad2fcdca426cdb'
p135
S'graftor'
p136
sS'61fd4cac9f5429d14d015e7632e3514a'
p137
S'strictor'
p138
sS'32cd2f076bb1984aed598750d30d212d'
p139
S'loadmoney'
p140
sS'913cf9179e7dc56363673a926eaf5b7b'
p141
S'famvt'
p142
sS'a5b40ff4ca9be61c6295fe8e6b5c7df4'
p143
S'artemis'
p144
sS'd1f8897c649bd60080c8b1d7027785d9'
p145
S'firseria'
p146
sS'd47eecfdc44e101c2d7a2c81e6f21156'
p147
S'pup-fjg'
p148
sS'c1d930795f3c26cbdd2c22df3021c644'
p149
S'loadmoney'
p150
sS'317624f2903ffa72ac040e87e36f1645'
p151
S'loadmoney'
p152
sS'a4b8c9fbbc6c509fe9c1733141e611d7'
p153
S'firseria'
p154
sS'33cc90da028fd1db12c21ac77b6c2532'
p155
S'ipz'
p156
sS'c2118c4184e53db52b1ba3d58ffe15f6'
p157
S'ipz'
p158
sS'82cf1e67ed155da7e89fc4f49b97050d'
p159
S'zusy'
p160
sS'331f0d1b3e25f7a3921642c26380f09b'
p161
S'artemis'
p162
sS'6123f4e765d6ba2bb4d9878de8f0598b'
p163
S'loadmoney'
p164
sS'2872821c2d87ae14a98e0017cffb4434'
p165
S'banker'
p166
sS'518c227fc67926213502da39d8d44fd6'
p167
S'artemis'
p168
sS'5170d63bcfe818f0cbbdb0ea5f11726f'
p169
S'strictor'
p170
sS'b5a875aee144f95bcefcdb7f6daea440'
p171
S'firseria'
p172
sS'1088046dcb34429d55d4695cf3b28301'
p173
S'famvt'
p174
sS'10438da7c2166156c4fbce788e4793ed'
p175
S'symmi'
p176
sS'833562ee3e3a2569fe42a303d5619464'
p177
S'zusy'
p178
sS'd293b63ea6e67eb88cd85980e25c3642'
p179
S'firseria'
p180
sS'c323aabad606d27b03ca7182cfe66f1a'
p181
S'symmi'
p182
sS'd1441c9c8de5c7f597fa7e2f1f7f222a'
p183
S'firseria'
p184
sS'523bf273741a7c82eda8509ff5a350b4'
p185
S'famvt'
p186
sS'23377b24ad28def0c5954adcf74a8a05'
p187
S'graftor'
p188
sS'82ec14e682cb0322129fb4e42304962d'
p189
S'loadmoney'
p190
sS'50ba51bc86d689f324d7ca27d0a7eb52'
p191
S'famvt'
p192
sS'a27c21978c8a6226178465fefced555d'
p193
S'startpage'
p194
sS'33a6249e0f094d64bda9660f3294c1ba'
p195
S'bundlore'
p196
sS'17b48167db6bcb087412b8a047446331'
p197
S'artemis'
p198
sS'32abc951d6c707d2036c9e2a50e5fcb6'
p199
S'kazy'
p200
sS'1037b8385f3eb7f7ed6cbdf4251b5fa2'
p201
S'famvt'
p202
sS'd0c4bba46e68e0ff5efce1297faa3b49'
p203
S'appsinstaller'
p204
sS'5177141306a32b6af318f0aa674c716b'
p205
S'famvt'
p206
sS'd287f3dc57fd03a527747396a3a901b5'
p207
S'loadmoney'
p208
sS'c40f9f7eea18ede8f0f6ed40f3e8d39e'
p209
S'ipz'
p210
sS'7183044ef3d566ed8d109695648ff7f9'
p211
S'pup-fea'
p212
sS'b271dbd8ad7519eab3e5e9008013623e'
p213
S'pup-fea'
p214
sS'd422d21370469217ba738e5fad136265'
p215
S'ipz'
p216
sS'82a0f36bad3db10cda8bdd8601348959'
p217
S'famvt'
p218
sS'b295318cdd0ad09baa1cdadf86b90fc1'
p219
S'kazy'
p220
sS'b55664cd1314cae5a3172a147c446a67'
p221
S'zusy'
p222
sS'd381dc0651aee234b7d59c06800049c4'
p223
S'bettersurf'
p224
sS'33ba5ee592067b75ac74aceb66170787'
p225
S'artemis'
p226
sS'260e166c56a4340962aa2bc2cae3eb43'
p227
S'appsinstaller'
p228
sS'a429bfdadd70794a59885fe2a53dd6ee'
p229
S'pup-fea'
p230
sS'25bc7a8af105eb9ac6feb54e16ae741f'
p231
S'firseria'
p232
sS'c3c7402347a313740a7a10edc33cb4c5'
p233
S'firseria'
p234
sS'961bac503db82b784e6f37dd9d0cebf6'
p235
S'ipz'
p236
sS'd5229b1ba9ac805a1e7c0b871bd1eb96'
p237
S'graftor'
p238
sS'2b0d1f7527e0191f190744e8a1e319c3'
p239
S'artemis'
p240
sS'd288e9a5bbd77711399f985584d374a6'
p241
S'famvt'
p242
sS'27f00a453f3bdd8a3beb273b3ad2d39d'
p243
S'artemis'
p244
sS'5033a94c6c7dd21d15615ca6d7992147'
p245
S'ipz'
p246
sS'd695c2c7d9718238bd95b354a147c775'
p247
S'artemis'
p248
sS'd65cd3137858bb17f8b9b7fb0964815f'
p249
S'ipz'
p250
sS'b0576ac96f4dd6b5ec82566b5f63f651'
p251
S'sality'
p252
sS'c121f821dc6853574777f3bdf6a68c5a'
p253
S'strictor'
p254
sS'c55c1627f5bf9fc6d85ea6e8501dbf78'
p255
S'artemis'
p256
sS'b142b8399b09e535dc73a1924b0e5daa'
p257
S'firseria'
p258
sS'2c05a699fcdd02c4a3e982543363fa44'
p259
S'domaiq'
p260
sS'a17b9b402096a12c4d9e7f1c57a61133'
p261
S'famvt'
p262
sS'249e49943601cb7182c7cf47b37a8598'
p263
S'pup-fea'
p264
sS'5169113d8207a5605ff57604a00c030a'
p265
S'somoto'
p266
sS'd0aec3d90e153c188c76206a672014b7'
p267
S'firseria'
p268
sS'407ced5a43dbf4610acd2441ba62e125'
p269
S'hype'
p270
sS'8377ec4ff4663a70419490020f2ac13d'
p271
S'loadmoney'
p272
sS'560ed485d9b62ad9632b8d7d20b266ce'
p273
S'installcore'
p274
sS'717c6535d2743d25384de477af509559'
p275
S'sality'
p276
sS'2ab814305cf1db748057a4bc313fb503'
p277
S'firseria'
p278
sS'a49ab036c70167ff9894e142cfd279aa'
p279
S'sality'
p280
sS'34dc911577554e81eee75cfe0fe709ff'
p281
S'symmi'
p282
sS'a2c9cd82e2c0388d6d4b4dcbd5895a48'
p283
S'sality'
p284
sS'a1cad6bf3bc2ed6329e98691ca0822d8'
p285
S'domaiq'
p286
sS'305303294ae289f97ceacc37112afcba'
p287
S'kazy'
p288
sS'51921c88a21449ac0b5bbf3c1ddc2b25'
p289
S'domal'
p290
sS'316a01e2c518f64cf2f8b0a843cad0f1'
p291
S'kazy'
p292
sS'a1a4e96dd68e9233904b107cc2e9251f'
p293
S''
p294
sS'a3512f81f74bab766b8d55d6480ea245'
p295
S'firseria'
p296
sS'b4ecab3de919dc6f8095a3b462524597'
p297
S'ipz'
p298
sS'a1565742cfdebc0d7b21f2dba34a4c5c'
p299
S'firseria'
p300
sS'60e777d78106b7f803ee6bf5b74d317d'
p301
S'conduit'
p302
sS'043121379d4a5f0f227d74ef0336428c'
p303
S'famvt'
p304
sS'221bdade3f1bd0dd211025fdc859055b'
p305
S'installcore'
p306
sS'70e399acca62e88cc86d9d3dc0eb50fe'
p307
S'ipz'
p308
sS'86060592b44f5796e297d495f5aaee4f'
p309
S'loadmoney'
p310
sS'a0113172ad9bd171c0075626f04fc224'
p311
S'firseria'
p312
sS'236740b7cbf84cc3e11e009499392313'
p313
S'famvt'
p314
sS'33d9e187ca5c19d9e6ff43cf7705e72b'
p315
S'tnega'
p316
sS'd7ce189248c81102a9a4e7ba74a146f8'
p317
S'ipz'
p318
sS'a4207e48739ab4da384acaeebcba0c66'
p319
S'appsinstaller'
p320
sS'5600702668f1886cd37782f53a34d316'
p321
S'firseria'
p322
sS'a1a5a8d4da63f6744874190a4ce6ba5f'
p323
S'famvt'
p324
sS'509c649dd40ee219afd6c41e25e38d36'
p325
S'loadmoney'
p326
sS'da508d53f4f904089d63e059be87e431'
p327
S'firseria'
p328
sS'2272d05b959f133bcf3e38c48ddbfcad'
p329
S'kazy'
p330
sS'b77f1865e955be2b1ffe866f54d2b261'
p331
S'appsinstaller'
p332
sS'a30bbae84906c52d3f3c156994e58843'
p333
S'ipz'
p334
sS'309985e32deb3b6a2b548cef840701f5'
p335
S'famvt'
p336
sS'b4081a8b806461abf0bdfbe081d6a691'
p337
S'loadmoney'
p338
sS'31db43893a0d7c213dee4bad716bbb62'
p339
S'domaiq'
p340
sS'a0a01b4cf56dee146e3cf4701c203547'
p341
S'hype'
p342
sS'b247b6b602fbfeafd096088a56f6ffb9'
p343
S'loadmoney'
p344
sS'347bad094f00c9013f59a07e1647e939'
p345
S'loadmoney'
p346
sS'd20135f6ce0705c0f627bd0d40d1448a'
p347
S'artemis'
p348
sS'1000511f9f867a3ee51cb91e7d922e99'
p349
S'firseria'
p350
sS'24ef90755c68c3f2f6d4f8805615bad6'
p351
S'firseria'
p352
sS'2a8d402d0698b7d07fbeebce048df50b'
p353
S'symmi'
p354
sS'861d9037f8ec7b8b2d01dad44ec6a524'
p355
S'firseria'
p356
sS'da41f2156f15ba570552b4c2cde2d906'
p357
S'kazy'
p358
sS'd6d1946ff60a8884a6dbdefe4e89771e'
p359
S'wasamalax'
p360
sS'b10f6b10bd09dec312300bae2214e183'
p361
S'ipz'
p362
sS'b6b51779559b5f20eccc04b0b20bf1fc'
p363
S'ipz'
p364
sS'902e9898276a9dd149301756092550ce'
p365
S'firseria'
p366
sS'31031b0783dea6906977abae83ab022d'
p367
S'graftor'
p368
sS'81823bb1c8598eed93c96cab959c2f74'
p369
S'pup-fja'
p370
sS'c16825d05bbb35c0d36120011c6d666f'
p371
S'famvt'
p372
sS'52cd8c9cc8c4e794e9243d787853f556'
p373
S'somoto'
p374
sS'29fa30bb9dd612507b28bf4ec36f0372'
p375
S'graftor'
p376
sS'a1fd67af4edfb346a8c8abaab5e1cc7b'
p377
S'ibryte'
p378
sS'55da555e75ab922f7dfcceb1209289b3'
p379
S'ipz'
p380
sS'c2b5874fc252386e39b1481b375fd68f'
p381
S'installcore'
p382
sS'329a5855e90638c7d25c6a1265d1d74f'
p383
S'installcore'
p384
sS'06dc60ab51a3ba87757726f7a085d9d5'
p385
S'firseria'
p386
sS'7070e73ac6795a8a02270381fcdfb99b'
p387
S'generickd'
p388
sS'807090991f3da3c1132f2b5dec7511a3'
p389
S'firseria'
p390
sS'c342a9a6e8f8beee266677330812b11a'
p391
S'domal'
p392
sS'60ef32102d1ae0d8bfa046757739edcd'
p393
S'famvt'
p394
sS'2589f45b78daf51f1f4412f743387d90'
p395
S'hmgfa0isxtgb'
p396
sS'a21376fd20b388864bc9d08e10902c46'
p397
S'koobface'
p398
sS'93c213c3c09cfaf1de11b23469071368'
p399
S'artemis'
p400
sS'b242c1cb8ca5b84b129bffea7bc76fae'
p401
S'famvt'
p402
sS'a1e68c58d8bce6639dd5ec2e4bccb79c'
p403
S'firseria'
p404
sS'a33580103ea07f5f24cbda7500c28781'
p405
S'famvt'
p406
sS'81ec8dd3f588bacf6fe3ca4744dabd85'
p407
S'famvt'
p408
sS'201a7a21f24c811d9ba46c17ef3f06cf'
p409
S'artemis'
p410
sS'942a444c928e47cf47454eccbe5da352'
p411
S'firseria'
p412
sS'324ed762499093ef9cd82d8e346070dc'
p413
S'famvt'
p414
sS'5032e7e1f8cd2a9cee4dba605bb71c39'
p415
S'famvt'
p416
sS'32a20d06dc9132648eaead1ca9b1033d'
p417
S'artemis'
p418
sS'08261732bfcae9a06c7fd6e6f76b2a81'
p419
S'graftor'
p420
sS'23c7c4f6fc13fdcc9e0959aabfdafe0e'
p421
S'famvt'
p422
sS'8523f5ace7369187b1f55c2066a82836'
p423
S'loadmoney'
p424
sS'5075e81a944c44aa4701d94a80c0cccc'
p425
S'famvt'
p426
sS'703b754ea67898da46ed27e0527f6ce7'
p427
S'artemis'
p428
sS'1f2366c3955cf09b599a8a9233367cac'
p429
S'actualspy'
p430
sS'a4c97b2f23a8983d0a43301dfb19db69'
p431
S'symmi'
p432
sS'62f6ca088970853ccb2fd794cc65bf65'
p433
S'sality'
p434
sS'35a2de57da22cd4d9674b6bfd282a9fc'
p435
S'artemis'
p436
sS'815a763f2c764a33094625aedb37d9ef'
p437
S'loadmoney'
p438
sS'802660d278ba369c56a1bc7a31baa265'
p439
S'loadmoney'
p440
sS'0278192ce1aa7f8c4ae746eae73e6475'
p441
S'famvt'
p442
sS'241d19df78ba083825ad379426fc7a5c'
p443
S'famvt'
p444
sS'c5e453ce174407cc2796c5f3444cc2c6'
p445
S'toolbarinstaller'
p446
sS'81c2d13624f473c10f9866dee8ce79fb'
p447
S'fiseria'
p448
sS'060c18ffe4b4f8b47c90a2339533d622'
p449
S'firseria'
p450
sS'a2e80512b72f013c89ed2884d39e1eeb'
p451
S'famvt'
p452
sS'512fe4ffc612470c04c57b501c8a7828'
p453
S'loadmoney'
p454
sS'90ff8f17742e35022a36473867119d85'
p455
S'kazy'
p456
sS'a3eab7ad23bc677f8513f374ba596b92'
p457
S'firseria'
p458
sS'd11e481c9d30e80ffc55c706ffb30f11'
p459
S'loadmoney'
p460
sS'b3f2970a3b5196f28dc56ed39f2b2508'
p461
S'tnega'
p462
sS'b2254a732c927b91fc91de18a2f3c5c9'
p463
g294
sS'519b94ba9a84b4ede97b7478cefacf65'
p464
S'famvt'
p465
sS'170e99072c8840704e784d3ecde647a5'
p466
S'generickdv'
p467
sS'c32e9387f94c67a39d4c35b111302b0b'
p468
S'kazy'
p469
sS'504084a3a098a94ac2cd6c1d2c6ed357'
p470
S'toolbarinstaller'
p471
sS'd5ebf976acd93ae86bc92b49273ebbd2'
p472
S'pup-fja'
p473
sS'd5f408d4570f4d65c796bca3953704de'
p474
S'loadmoney'
p475
sS'b5088c9af7eeb7d2d966881a017384b6'
p476
S'firseria'
p477
sS'326a9a10efba0f8bf0354d4d0a7d30fd'
p478
S'domaiq'
p479
sS'd1bf928492ba4c066e2c5504a79a2d92'
p480
S'generickdv'
p481
sS'005528c99846dfd84e7a29ae2cf18fd8'
p482
S'hfsautob'
p483
sS'c408d44ff050d84a6679c88b6c156ca7'
p484
S'bettersurf'
p485
sS'0172fef366185da8add30d714f346a35'
p486
S'soft32downloader'
p487
sS'51fc857e648ed394fc515417ee04c633'
p488
S'loadmoney'
p489
sS'949304663e15ab1dcd9a0781b6d871d8'
p490
S'firseria'
p491
sS'325e833996f116a6a24d5567ba2aefe3'
p492
S'loadmoney'
p493
sS'22e2fe27211a28c8cc5b67d498824743'
p494
S'sality'
p495
sS'b3b15c3261e48f4d001b08fc900f40af'
p496
S'firseria'
p497
sS'23ed4c1867cf18a06fed1b8fa7ec523e'
p498
S'installcore'
p499
sS'a13302780b76aa7f678c83052e1f80f5'
p500
S'famvt'
p501
sS'905cc1fc0b25d293cc9c053c6e70919c'
p502
S'famvt'
p503
sS'930bc9f36310286d105c318a96264eba'
p504
S'appsinstaller'
p505
sS'90bc59dafe96c97402785b619dcfdd21'
p506
S'pup-fea'
p507
sS'81f727efa7f0977b86ed3581e159b219'
p508
S'optimuminstaller'
p509
sS'd6e0cbadf6d62c8fc034954878bdf7b6'
p510
S'hfsautob'
p511
sS'808ab4f1cca8091b05d26f15f775c525'
p512
S'zusy'
p513
sS'a03c34b3882e76511c31cd6a7e158bc6'
p514
S'amonetize'
p515
sS'd3b55fd8e844379a98c9e9d6ebe63175'
p516
S'symmi'
p517
sS'd7f83cb68543a60efc18de6afeda3afd'
p518
S'firseria'
p519
sS'54269539f16af2bdac6ae146e1b934a1'
p520
S'firseria'
p521
sS'd5036353d1b1b9018c4443442ff8c68b'
p522
S'hype'
p523
sS'27546542eea38e818e2ac51d4ec9775f'
p524
S'strictor'
p525
sS'33418d413f46cadacfc76d498ef34eae'
p526
S'nirsoft'
p527
sS'578adec078a8c12a19ab07a4e64cf3b2'
p528
S'symmi'
p529
sS'd5aafe1af9449d87262a5016f0993d99'
p530
S'appsinstaller'
p531
sS'b32a53310f561ef383c8c4dd3ccb5d1b'
p532
S'hype'
p533
sS'b1961865622a279d82ceffa4dc0fc414'
p534
S'loadmoney'
p535
sS'30d69e8b5389b4a4e2f727d846cacee9'
p536
S'downloader-frk'
p537
sS'31ad1a73583f2d44e741747e4fc4dbe0'
p538
g294
sS'337da6c8942095e6f1359325676f05ef'
p539
S'artemis'
p540
sS'0006dfb19193ff5910b3ffc94a29a7f6'
p541
S'loadmoney'
p542
sS'84bc4455b4ecc97a6e95241beb6cd2f5'
p543
S'firseria'
p544
sS'd411eb6d3dd126922f1e18122ea2e346'
p545
S'ipz'
p546
sS'd62e314616772f9b0401f7738e262eb2'
p547
S'firseria'
p548
sS'c2dd0c2d9416183ab132052c7f389db9'
p549
S'famvt'
p550
sS'b0600327e25557f457e477594e3684e6'
p551
S'firseria'
p552
sS'9141498693d7df7a60b1894ca6417fcd'
p553
S'kazy'
p554
sS'340c63ed7d513d67cf007983d34e6f68'
p555
S'nsis'
p556
sS'3429dc19d8d5f100f3d3fe403cc72726'
p557
S'pup-fja'
p558
sS'957713c3f6e5549e5f24661aefbb5edd'
p559
S'firseria'
p560
sS'a4f4fd555bcbfe6f62725a5599aee941'
p561
S'artemis'
p562
sS'd1f35ba9bee466133d93bf161ad6172b'
p563
S'artemis'
p564
sS'd108622979a9586df24338f535b3f047'
p565
S'artemis'
p566
sS'84dffc6d32371bbbfa701551e363af30'
p567
S'artemis'
p568
sS'a4756d0fb104b86ec1c6cbbb23a2c45b'
p569
S'artemis'
p570
sS'd203e861230e719e0a74031bd55ccd4e'
p571
S'artemis'
p572
sS'940f7e9ab19be7a9ce0008a6e6b01f9f'
p573
S'appsinstaller'
p574
sS'c223ce8475dad31d490377183fe057be'
p575
S'loadmoney'
p576
sS'9271df78c6f33488bae8d9ab82a47440'
p577
S'firseria'
p578
sS'a26b2ba079e8616c8ce35f3533bc45ec'
p579
S'firseria'
p580
sS'202cfbaccc16ecbfe4c8f544ebf50ded'
p581
S'loadmoney'
p582
sS'290a6595331647dc0f7b8c20f8ca38a3'
p583
S'ipz'
p584
sS'5550b32b309572142b91577fa1a6112a'
p585
S'genome'
p586
sS'd16a128f17d909a42dbfe0e396003fad'
p587
S'bundlore'
p588
sS'c4f1656879c4772eefb301379a510721'
p589
S'appsinstall'
p590
sS'32ce3a2536052169e1ec9be6f493d92c'
p591
S'loadmoney'
p592
sS'84870116484818d0428a2303dabdd37b'
p593
S'appsinstaller'
p594
sS'51b69c710ade0340e86daf70c8a07e12'
p595
S'graftor'
p596
sS'90489a23cb732ae082adf3def0b5d243'
p597
S'appsinstaller'
p598
sS'a0f2e27b28835c96377b73b007c09f15'
p599
S'bettersurf'
p600
sS'51c2c4afe76bcd179ba83619b4840c71'
p601
S'famvt'
p602
sS'd91a6687f9760b20e5aa4e88cf8b18a8'
p603
S'firseria'
p604
sS'2017146d4cec9afb3f477f8a541e5aa1'
p605
S'famvt'
p606
sS'b768c2760776c66dfed69d4ea0b60d1c'
p607
S'optimuminstaller'
p608
sS'819cf75b209768d2083ee84059ec294f'
p609
S'hfsautob'
p610
s.