(lp0
(lp1
S'Bkav'
p2
aS'TotalDefense'
p3
aS'MicroWorld-eScan'
p4
aS'nProtect'
p5
aS'CMC'
p6
aS'CAT-QuickHeal'
p7
aS'McAfee'
p8
aS'Malwarebytes'
p9
aS'Zillya'
p10
aS'AegisLab'
p11
aS'K7AntiVirus'
p12
aS'K7GW'
p13
aS'TheHacker'
p14
aS'Agnitum'
p15
aS'F-Prot'
p16
aS'Symantec'
p17
aS'Norman'
p18
aS'ESET-NOD32'
p19
aS'TrendMicro-HouseCall'
p20
aS'Avast'
p21
aS'ClamAV'
p22
aS'Kaspersky'
p23
aS'BitDefender'
p24
aS'NANO-Antivirus'
p25
aS'ViRobot'
p26
aS'ByteHero'
p27
aS'Tencent'
p28
aS'Ad-Aware'
p29
aS'Emsisoft'
p30
aS'Comodo'
p31
aS'F-Secure'
p32
aS'DrWeb'
p33
aS'VIPRE'
p34
aS'AntiVir'
p35
aS'TrendMicro'
p36
aS'McAfee-GW-Edition'
p37
aS'Sophos'
p38
aS'Cyren'
p39
aS'Jiangmin'
p40
aS'Avira'
p41
aS'Antiy-AVL'
p42
aS'Kingsoft'
p43
aS'Microsoft'
p44
aS'SUPERAntiSpyware'
p45
aS'GData'
p46
aS'Commtouch'
p47
aS'AhnLab-V3'
p48
aS'VBA32'
p49
aS'AVware'
p50
aS'Panda'
p51
aS'Rising'
p52
aS'Ikarus'
p53
aS'Fortinet'
p54
aS'AVG'
p55
aS'Baidu-International'
p56
aS'Qihoo-360'
p57
aa(dp58
S'b12e66515990aba2ca11fd4e72959f42'
p59
S'b12e66515990aba2ca11fd4e72959f42'
p60
sS'5375fd472c9c4dbb143a89796571cc9e'
p61
S'5375fd472c9c4dbb143a89796571cc9e'
p62
sS'b67c317f6397fde0790290046ab3ff1b'
p63
S'b67c317f6397fde0790290046ab3ff1b'
p64
sS'81f727efa7f0977b86ed3581e159b219'
p65
S'81f727efa7f0977b86ed3581e159b219'
p66
sS'26914ea7c65538ef9954b779ab7dc280'
p67
S'26914ea7c65538ef9954b779ab7dc280'
p68
sS'c181c5ad7bee8a1f0e87bf31701c8a43'
p69
S'c181c5ad7bee8a1f0e87bf31701c8a43'
p70
sS'23ed4c1867cf18a06fed1b8fa7ec523e'
p71
S'23ed4c1867cf18a06fed1b8fa7ec523e'
p72
sS'5116f8d8c31a4e458c4a633c04082ebd'
p73
S'5116f8d8c31a4e458c4a633c04082ebd'
p74
sS'84dffc6d32371bbbfa701551e363af30'
p75
S'84dffc6d32371bbbfa701551e363af30'
p76
sS'35a94ca04d07c9427c78d1befc431ea6'
p77
S'35a94ca04d07c9427c78d1befc431ea6'
p78
sS'27f348177560314182f161d9ee90b999'
p79
S'27f348177560314182f161d9ee90b999'
p80
sS'94d0442c0563b5bfddc6d683bd0d9087'
p81
S'94d0442c0563b5bfddc6d683bd0d9087'
p82
sS'528360b3ff12866c8de7fb90369cf6a4'
p83
S'528360b3ff12866c8de7fb90369cf6a4'
p84
sS'd8762c8cea86083ce9a3aec9aedb109f'
p85
S'd8762c8cea86083ce9a3aec9aedb109f'
p86
sS'3002038e55383b4e1d14abc7182a1e78'
p87
S'3002038e55383b4e1d14abc7182a1e78'
p88
sS'4037115559746cfd5c865a9f713c2625'
p89
S'4037115559746cfd5c865a9f713c2625'
p90
sS'c097e3603b5903d6f7c65038d69b7285'
p91
S'c097e3603b5903d6f7c65038d69b7285'
p92
sS'28e17f1e110f3508ceb611839986a4f4'
p93
S'28e17f1e110f3508ceb611839986a4f4'
p94
sS'811c47bd9f7347318794f59a8230c180'
p95
S'811c47bd9f7347318794f59a8230c180'
p96
sS'35a2de57da22cd4d9674b6bfd282a9fc'
p97
S'35a2de57da22cd4d9674b6bfd282a9fc'
p98
sS'33a38040289cb673ebcce042471d35ff'
p99
S'33a38040289cb673ebcce042471d35ff'
p100
sS'b435648fcba6306bccc01c50c0785651'
p101
S'b435648fcba6306bccc01c50c0785651'
p102
sS'a41cc0879fc07afd76ada851d99667e4'
p103
S'a41cc0879fc07afd76ada851d99667e4'
p104
sS'109384695f396badeedd8e171b31b734'
p105
S'109384695f396badeedd8e171b31b734'
p106
sS'b4081a8b806461abf0bdfbe081d6a691'
p107
S'b4081a8b806461abf0bdfbe081d6a691'
p108
sS'd67a719d72e33099bcc28e25249e8799'
p109
S'd67a719d72e33099bcc28e25249e8799'
p110
sS'32abc951d6c707d2036c9e2a50e5fcb6'
p111
S'32abc951d6c707d2036c9e2a50e5fcb6'
p112
sS'246920c3ec29d419549fadefd78c30e4'
p113
S'246920c3ec29d419549fadefd78c30e4'
p114
sS'83f04b9aebe38cb456cf68f206b0f688'
p115
S'83f04b9aebe38cb456cf68f206b0f688'
p116
sS'd7f83cb68543a60efc18de6afeda3afd'
p117
S'd7f83cb68543a60efc18de6afeda3afd'
p118
sS'263bde02a8c2daa812ae145e9efcda4d'
p119
S'263bde02a8c2daa812ae145e9efcda4d'
p120
sS'1037b8385f3eb7f7ed6cbdf4251b5fa2'
p121
S'1037b8385f3eb7f7ed6cbdf4251b5fa2'
p122
sS'237c4e337993167ea887286c61844807'
p123
S'237c4e337993167ea887286c61844807'
p124
sS'82281825ed1452977a764643428d9976'
p125
S'82281825ed1452977a764643428d9976'
p126
sS'a4c97b2f23a8983d0a43301dfb19db69'
p127
S'a4c97b2f23a8983d0a43301dfb19db69'
p128
sS'51d181bc9524248559dff26725b05bb8'
p129
S'51d181bc9524248559dff26725b05bb8'
p130
sS'a607dd2dc35f0a24e010756620c19227'
p131
S'a607dd2dc35f0a24e010756620c19227'
p132
sS'd0c4bba46e68e0ff5efce1297faa3b49'
p133
S'd0c4bba46e68e0ff5efce1297faa3b49'
p134
sS'c603502225770041c03fd732837719c8'
p135
S'c603502225770041c03fd732837719c8'
p136
sS'a03c34b3882e76511c31cd6a7e158bc6'
p137
S'a03c34b3882e76511c31cd6a7e158bc6'
p138
sS'33b0342851a544405b68e3f957499c13'
p139
S'33b0342851a544405b68e3f957499c13'
p140
sS'd2e9862303ae42959b733f11a168e268'
p141
S'd2e9862303ae42959b733f11a168e268'
p142
sS'31b164b4dc1d2744bf11183604572648'
p143
S'31b164b4dc1d2744bf11183604572648'
p144
sS'a2d9835a375e0d31347266746f62b864'
p145
S'a2d9835a375e0d31347266746f62b864'
p146
sS'201a7a21f24c811d9ba46c17ef3f06cf'
p147
S'201a7a21f24c811d9ba46c17ef3f06cf'
p148
sS'd108622979a9586df24338f535b3f047'
p149
S'd108622979a9586df24338f535b3f047'
p150
sS'b2b712a7e0f486a0eddfb412f06a6c21'
p151
S'b2b712a7e0f486a0eddfb412f06a6c21'
p152
sS'942a444c928e47cf47454eccbe5da352'
p153
S'942a444c928e47cf47454eccbe5da352'
p154
sS'a0ceb22ed87df9019f39c5c135a58c17'
p155
S'a0ceb22ed87df9019f39c5c135a58c17'
p156
sS'c1145db43a83fa9721160a9b0ba43a63'
p157
S'c1145db43a83fa9721160a9b0ba43a63'
p158
sS'707e73f2f46c9bf3afca84e05b895862'
p159
S'707e73f2f46c9bf3afca84e05b895862'
p160
sS'60a9a5f28d2dd295daab51d2b977cc01'
p161
S'60a9a5f28d2dd295daab51d2b977cc01'
p162
sS'a0113172ad9bd171c0075626f04fc224'
p163
S'a0113172ad9bd171c0075626f04fc224'
p164
sS'53d5d20ac42c9e42d55b9a9dcc3fc344'
p165
S'53d5d20ac42c9e42d55b9a9dcc3fc344'
p166
sS'2a3f0f96e4cc7ae13558d80d99426233'
p167
S'2a3f0f96e4cc7ae13558d80d99426233'
p168
sS'60ef32102d1ae0d8bfa046757739edcd'
p169
S'60ef32102d1ae0d8bfa046757739edcd'
p170
sS'c3ea3ad31e662953f0fcd1c62c50b130'
p171
S'c3ea3ad31e662953f0fcd1c62c50b130'
p172
sS'1036837a1c94b6568a6596077452a19a'
p173
S'1036837a1c94b6568a6596077452a19a'
p174
sS'd496a8ddf556a2097f49e780ff26ec38'
p175
S'd496a8ddf556a2097f49e780ff26ec38'
p176
sS'2173f89db89fd55a2d92eb824cd6e4f4'
p177
S'2173f89db89fd55a2d92eb824cd6e4f4'
p178
sS'c3a2824e183d10930fa13a27b85186cb'
p179
S'c3a2824e183d10930fa13a27b85186cb'
p180
sS'33418d413f46cadacfc76d498ef34eae'
p181
S'33418d413f46cadacfc76d498ef34eae'
p182
sS'33d9e187ca5c19d9e6ff43cf7705e72b'
p183
S'33d9e187ca5c19d9e6ff43cf7705e72b'
p184
sS'316ec8b680b5376072bff5338c5eae20'
p185
S'316ec8b680b5376072bff5338c5eae20'
p186
sS'60d3d41ae03d24038520a7dee6a0abbc'
p187
S'60d3d41ae03d24038520a7dee6a0abbc'
p188
sS'd15a3109da6635b766b2e7e2a3974f7e'
p189
S'd15a3109da6635b766b2e7e2a3974f7e'
p190
sS'52149c30b1c49a7a5a6a9e119b999715'
p191
S'52149c30b1c49a7a5a6a9e119b999715'
p192
sS'80818bc6491f5ec1b58d2058ba24fb44'
p193
S'80818bc6491f5ec1b58d2058ba24fb44'
p194
sS'02c27a2e4c215d22fabdfc7b46fd6f20'
p195
S'02c27a2e4c215d22fabdfc7b46fd6f20'
p196
sS'569db7273547dfb2a0e6016e166bf275'
p197
S'569db7273547dfb2a0e6016e166bf275'
p198
sS'b45a2b6017d85fba450c60e97994367d'
p199
S'b45a2b6017d85fba450c60e97994367d'
p200
sS'b3f691d4f0fe5ac993b75b559046bdd5'
p201
S'b3f691d4f0fe5ac993b75b559046bdd5'
p202
sS'c3ec90236977ee3e046c466cbb04d031'
p203
S'c3ec90236977ee3e046c466cbb04d031'
p204
sS'225a739c4a77c0851f5486f6208ef5b7'
p205
S'225a739c4a77c0851f5486f6208ef5b7'
p206
sS'a0f2e27b28835c96377b73b007c09f15'
p207
S'a0f2e27b28835c96377b73b007c09f15'
p208
sS'a2593ed0e66611da58ad2fcdca426cdb'
p209
S'a2593ed0e66611da58ad2fcdca426cdb'
p210
sS'61fd4cac9f5429d14d015e7632e3514a'
p211
S'61fd4cac9f5429d14d015e7632e3514a'
p212
sS'32cd2f076bb1984aed598750d30d212d'
p213
S'32cd2f076bb1984aed598750d30d212d'
p214
sS'913cf9179e7dc56363673a926eaf5b7b'
p215
S'913cf9179e7dc56363673a926eaf5b7b'
p216
sS'd1f8897c649bd60080c8b1d7027785d9'
p217
S'd1f8897c649bd60080c8b1d7027785d9'
p218
sS'd47eecfdc44e101c2d7a2c81e6f21156'
p219
S'd47eecfdc44e101c2d7a2c81e6f21156'
p220
sS'c1d930795f3c26cbdd2c22df3021c644'
p221
S'c1d930795f3c26cbdd2c22df3021c644'
p222
sS'317624f2903ffa72ac040e87e36f1645'
p223
S'317624f2903ffa72ac040e87e36f1645'
p224
sS'a4b8c9fbbc6c509fe9c1733141e611d7'
p225
S'a4b8c9fbbc6c509fe9c1733141e611d7'
p226
sS'8523f5ace7369187b1f55c2066a82836'
p227
S'8523f5ace7369187b1f55c2066a82836'
p228
sS'c2118c4184e53db52b1ba3d58ffe15f6'
p229
S'c2118c4184e53db52b1ba3d58ffe15f6'
p230
sS'82cf1e67ed155da7e89fc4f49b97050d'
p231
S'82cf1e67ed155da7e89fc4f49b97050d'
p232
sS'6123f4e765d6ba2bb4d9878de8f0598b'
p233
S'6123f4e765d6ba2bb4d9878de8f0598b'
p234
sS'2872821c2d87ae14a98e0017cffb4434'
p235
S'2872821c2d87ae14a98e0017cffb4434'
p236
sS'518c227fc67926213502da39d8d44fd6'
p237
S'518c227fc67926213502da39d8d44fd6'
p238
sS'5170d63bcfe818f0cbbdb0ea5f11726f'
p239
S'5170d63bcfe818f0cbbdb0ea5f11726f'
p240
sS'b5a875aee144f95bcefcdb7f6daea440'
p241
S'b5a875aee144f95bcefcdb7f6daea440'
p242
sS'1088046dcb34429d55d4695cf3b28301'
p243
S'1088046dcb34429d55d4695cf3b28301'
p244
sS'10438da7c2166156c4fbce788e4793ed'
p245
S'10438da7c2166156c4fbce788e4793ed'
p246
sS'833562ee3e3a2569fe42a303d5619464'
p247
S'833562ee3e3a2569fe42a303d5619464'
p248
sS'd293b63ea6e67eb88cd85980e25c3642'
p249
S'd293b63ea6e67eb88cd85980e25c3642'
p250
sS'c323aabad606d27b03ca7182cfe66f1a'
p251
S'c323aabad606d27b03ca7182cfe66f1a'
p252
sS'd1441c9c8de5c7f597fa7e2f1f7f222a'
p253
S'd1441c9c8de5c7f597fa7e2f1f7f222a'
p254
sS'523bf273741a7c82eda8509ff5a350b4'
p255
S'523bf273741a7c82eda8509ff5a350b4'
p256
sS'23377b24ad28def0c5954adcf74a8a05'
p257
S'23377b24ad28def0c5954adcf74a8a05'
p258
sS'82ec14e682cb0322129fb4e42304962d'
p259
S'82ec14e682cb0322129fb4e42304962d'
p260
sS'50ba51bc86d689f324d7ca27d0a7eb52'
p261
S'50ba51bc86d689f324d7ca27d0a7eb52'
p262
sS'82a0f36bad3db10cda8bdd8601348959'
p263
S'82a0f36bad3db10cda8bdd8601348959'
p264
sS'a27c21978c8a6226178465fefced555d'
p265
S'a27c21978c8a6226178465fefced555d'
p266
sS'33a6249e0f094d64bda9660f3294c1ba'
p267
S'33a6249e0f094d64bda9660f3294c1ba'
p268
sS'337da6c8942095e6f1359325676f05ef'
p269
S'337da6c8942095e6f1359325676f05ef'
p270
sS'03c009b451e012002513513a5d7e1b00'
p271
S'03c009b451e012002513513a5d7e1b00'
p272
sS'c1f844e0d2a6b7fdeddc9d6758a1e499'
p273
S'c1f844e0d2a6b7fdeddc9d6758a1e499'
p274
sS'd2276a5243924db8aac9fb6f0a3bd408'
p275
S'd2276a5243924db8aac9fb6f0a3bd408'
p276
sS'5177141306a32b6af318f0aa674c716b'
p277
S'5177141306a32b6af318f0aa674c716b'
p278
sS'd287f3dc57fd03a527747396a3a901b5'
p279
S'd287f3dc57fd03a527747396a3a901b5'
p280
sS'7183044ef3d566ed8d109695648ff7f9'
p281
S'7183044ef3d566ed8d109695648ff7f9'
p282
sS'b271dbd8ad7519eab3e5e9008013623e'
p283
S'b271dbd8ad7519eab3e5e9008013623e'
p284
sS'347bad094f00c9013f59a07e1647e939'
p285
S'347bad094f00c9013f59a07e1647e939'
p286
sS'd422d21370469217ba738e5fad136265'
p287
S'd422d21370469217ba738e5fad136265'
p288
sS'c16825d05bbb35c0d36120011c6d666f'
p289
S'c16825d05bbb35c0d36120011c6d666f'
p290
sS'b295318cdd0ad09baa1cdadf86b90fc1'
p291
S'b295318cdd0ad09baa1cdadf86b90fc1'
p292
sS'b55664cd1314cae5a3172a147c446a67'
p293
S'b55664cd1314cae5a3172a147c446a67'
p294
sS'd381dc0651aee234b7d59c06800049c4'
p295
S'd381dc0651aee234b7d59c06800049c4'
p296
sS'33ba5ee592067b75ac74aceb66170787'
p297
S'33ba5ee592067b75ac74aceb66170787'
p298
sS'260e166c56a4340962aa2bc2cae3eb43'
p299
S'260e166c56a4340962aa2bc2cae3eb43'
p300
sS'31031b0783dea6906977abae83ab022d'
p301
S'31031b0783dea6906977abae83ab022d'
p302
sS'25bc7a8af105eb9ac6feb54e16ae741f'
p303
S'25bc7a8af105eb9ac6feb54e16ae741f'
p304
sS'c3c7402347a313740a7a10edc33cb4c5'
p305
S'c3c7402347a313740a7a10edc33cb4c5'
p306
sS'961bac503db82b784e6f37dd9d0cebf6'
p307
S'961bac503db82b784e6f37dd9d0cebf6'
p308
sS'd5229b1ba9ac805a1e7c0b871bd1eb96'
p309
S'd5229b1ba9ac805a1e7c0b871bd1eb96'
p310
sS'2b0d1f7527e0191f190744e8a1e319c3'
p311
S'2b0d1f7527e0191f190744e8a1e319c3'
p312
sS'd288e9a5bbd77711399f985584d374a6'
p313
S'd288e9a5bbd77711399f985584d374a6'
p314
sS'309985e32deb3b6a2b548cef840701f5'
p315
S'309985e32deb3b6a2b548cef840701f5'
p316
sS'27f00a453f3bdd8a3beb273b3ad2d39d'
p317
S'27f00a453f3bdd8a3beb273b3ad2d39d'
p318
sS'5033a94c6c7dd21d15615ca6d7992147'
p319
S'5033a94c6c7dd21d15615ca6d7992147'
p320
sS'd695c2c7d9718238bd95b354a147c775'
p321
S'd695c2c7d9718238bd95b354a147c775'
p322
sS'd65cd3137858bb17f8b9b7fb0964815f'
p323
S'd65cd3137858bb17f8b9b7fb0964815f'
p324
sS'b0576ac96f4dd6b5ec82566b5f63f651'
p325
S'b0576ac96f4dd6b5ec82566b5f63f651'
p326
sS'a30bbae84906c52d3f3c156994e58843'
p327
S'a30bbae84906c52d3f3c156994e58843'
p328
sS'c55c1627f5bf9fc6d85ea6e8501dbf78'
p329
S'c55c1627f5bf9fc6d85ea6e8501dbf78'
p330
sS'b142b8399b09e535dc73a1924b0e5daa'
p331
S'b142b8399b09e535dc73a1924b0e5daa'
p332
sS'2c05a699fcdd02c4a3e982543363fa44'
p333
S'2c05a699fcdd02c4a3e982543363fa44'
p334
sS'a17b9b402096a12c4d9e7f1c57a61133'
p335
S'a17b9b402096a12c4d9e7f1c57a61133'
p336
sS'249e49943601cb7182c7cf47b37a8598'
p337
S'249e49943601cb7182c7cf47b37a8598'
p338
sS'd0aec3d90e153c188c76206a672014b7'
p339
S'd0aec3d90e153c188c76206a672014b7'
p340
sS'407ced5a43dbf4610acd2441ba62e125'
p341
S'407ced5a43dbf4610acd2441ba62e125'
p342
sS'b0600327e25557f457e477594e3684e6'
p343
S'b0600327e25557f457e477594e3684e6'
p344
sS'560ed485d9b62ad9632b8d7d20b266ce'
p345
S'560ed485d9b62ad9632b8d7d20b266ce'
p346
sS'241d19df78ba083825ad379426fc7a5c'
p347
S'241d19df78ba083825ad379426fc7a5c'
p348
sS'2ab814305cf1db748057a4bc313fb503'
p349
S'2ab814305cf1db748057a4bc313fb503'
p350
sS'a49ab036c70167ff9894e142cfd279aa'
p351
S'a49ab036c70167ff9894e142cfd279aa'
p352
sS'9141498693d7df7a60b1894ca6417fcd'
p353
S'9141498693d7df7a60b1894ca6417fcd'
p354
sS'a2c9cd82e2c0388d6d4b4dcbd5895a48'
p355
S'a2c9cd82e2c0388d6d4b4dcbd5895a48'
p356
sS'a1cad6bf3bc2ed6329e98691ca0822d8'
p357
S'a1cad6bf3bc2ed6329e98691ca0822d8'
p358
sS'305303294ae289f97ceacc37112afcba'
p359
S'305303294ae289f97ceacc37112afcba'
p360
sS'51921c88a21449ac0b5bbf3c1ddc2b25'
p361
S'51921c88a21449ac0b5bbf3c1ddc2b25'
p362
sS'703b754ea67898da46ed27e0527f6ce7'
p363
S'703b754ea67898da46ed27e0527f6ce7'
p364
sS'316a01e2c518f64cf2f8b0a843cad0f1'
p365
S'316a01e2c518f64cf2f8b0a843cad0f1'
p366
sS'a1a4e96dd68e9233904b107cc2e9251f'
p367
S'a1a4e96dd68e9233904b107cc2e9251f'
p368
sS'a3512f81f74bab766b8d55d6480ea245'
p369
S'a3512f81f74bab766b8d55d6480ea245'
p370
sS'b4ecab3de919dc6f8095a3b462524597'
p371
S'b4ecab3de919dc6f8095a3b462524597'
p372
sS'60e777d78106b7f803ee6bf5b74d317d'
p373
S'60e777d78106b7f803ee6bf5b74d317d'
p374
sS'043121379d4a5f0f227d74ef0336428c'
p375
S'043121379d4a5f0f227d74ef0336428c'
p376
sS'70e399acca62e88cc86d9d3dc0eb50fe'
p377
S'70e399acca62e88cc86d9d3dc0eb50fe'
p378
sS'340c63ed7d513d67cf007983d34e6f68'
p379
S'340c63ed7d513d67cf007983d34e6f68'
p380
sS'b1def3ea5f4f716e30b561cbbfa7dbc7'
p381
S'b1def3ea5f4f716e30b561cbbfa7dbc7'
p382
sS'236740b7cbf84cc3e11e009499392313'
p383
S'236740b7cbf84cc3e11e009499392313'
p384
sS'c223ce8475dad31d490377183fe057be'
p385
S'c223ce8475dad31d490377183fe057be'
p386
sS'3429dc19d8d5f100f3d3fe403cc72726'
p387
S'3429dc19d8d5f100f3d3fe403cc72726'
p388
sS'a4207e48739ab4da384acaeebcba0c66'
p389
S'a4207e48739ab4da384acaeebcba0c66'
p390
sS'5600702668f1886cd37782f53a34d316'
p391
S'5600702668f1886cd37782f53a34d316'
p392
sS'a1a5a8d4da63f6744874190a4ce6ba5f'
p393
S'a1a5a8d4da63f6744874190a4ce6ba5f'
p394
sS'da508d53f4f904089d63e059be87e431'
p395
S'da508d53f4f904089d63e059be87e431'
p396
sS'b77f1865e955be2b1ffe866f54d2b261'
p397
S'b77f1865e955be2b1ffe866f54d2b261'
p398
sS'c121f821dc6853574777f3bdf6a68c5a'
p399
S'c121f821dc6853574777f3bdf6a68c5a'
p400
sS'512fe4ffc612470c04c57b501c8a7828'
p401
S'512fe4ffc612470c04c57b501c8a7828'
p402
sS'93c213c3c09cfaf1de11b23469071368'
p403
S'93c213c3c09cfaf1de11b23469071368'
p404
sS'd62e314616772f9b0401f7738e262eb2'
p405
S'd62e314616772f9b0401f7738e262eb2'
p406
sS'd203e861230e719e0a74031bd55ccd4e'
p407
S'd203e861230e719e0a74031bd55ccd4e'
p408
sS'a0a01b4cf56dee146e3cf4701c203547'
p409
S'a0a01b4cf56dee146e3cf4701c203547'
p410
sS'b247b6b602fbfeafd096088a56f6ffb9'
p411
S'b247b6b602fbfeafd096088a56f6ffb9'
p412
sS'a429bfdadd70794a59885fe2a53dd6ee'
p413
S'a429bfdadd70794a59885fe2a53dd6ee'
p414
sS'd20135f6ce0705c0f627bd0d40d1448a'
p415
S'd20135f6ce0705c0f627bd0d40d1448a'
p416
sS'1000511f9f867a3ee51cb91e7d922e99'
p417
S'1000511f9f867a3ee51cb91e7d922e99'
p418
sS'24ef90755c68c3f2f6d4f8805615bad6'
p419
S'24ef90755c68c3f2f6d4f8805615bad6'
p420
sS'170e99072c8840704e784d3ecde647a5'
p421
S'170e99072c8840704e784d3ecde647a5'
p422
sS'2a8d402d0698b7d07fbeebce048df50b'
p423
S'2a8d402d0698b7d07fbeebce048df50b'
p424
sS'd1f35ba9bee466133d93bf161ad6172b'
p425
S'd1f35ba9bee466133d93bf161ad6172b'
p426
sS'504084a3a098a94ac2cd6c1d2c6ed357'
p427
S'504084a3a098a94ac2cd6c1d2c6ed357'
p428
sS'da41f2156f15ba570552b4c2cde2d906'
p429
S'da41f2156f15ba570552b4c2cde2d906'
p430
sS'd6d1946ff60a8884a6dbdefe4e89771e'
p431
S'd6d1946ff60a8884a6dbdefe4e89771e'
p432
sS'b10f6b10bd09dec312300bae2214e183'
p433
S'b10f6b10bd09dec312300bae2214e183'
p434
sS'b6b51779559b5f20eccc04b0b20bf1fc'
p435
S'b6b51779559b5f20eccc04b0b20bf1fc'
p436
sS'902e9898276a9dd149301756092550ce'
p437
S'902e9898276a9dd149301756092550ce'
p438
sS'b3b15c3261e48f4d001b08fc900f40af'
p439
S'b3b15c3261e48f4d001b08fc900f40af'
p440
sS'81823bb1c8598eed93c96cab959c2f74'
p441
S'81823bb1c8598eed93c96cab959c2f74'
p442
sS'5169113d8207a5605ff57604a00c030a'
p443
S'5169113d8207a5605ff57604a00c030a'
p444
sS'52cd8c9cc8c4e794e9243d787853f556'
p445
S'52cd8c9cc8c4e794e9243d787853f556'
p446
sS'29fa30bb9dd612507b28bf4ec36f0372'
p447
S'29fa30bb9dd612507b28bf4ec36f0372'
p448
sS'a1fd67af4edfb346a8c8abaab5e1cc7b'
p449
S'a1fd67af4edfb346a8c8abaab5e1cc7b'
p450
sS'55da555e75ab922f7dfcceb1209289b3'
p451
S'55da555e75ab922f7dfcceb1209289b3'
p452
sS'c2b5874fc252386e39b1481b375fd68f'
p453
S'c2b5874fc252386e39b1481b375fd68f'
p454
sS'329a5855e90638c7d25c6a1265d1d74f'
p455
S'329a5855e90638c7d25c6a1265d1d74f'
p456
sS'861d9037f8ec7b8b2d01dad44ec6a524'
p457
S'861d9037f8ec7b8b2d01dad44ec6a524'
p458
sS'7070e73ac6795a8a02270381fcdfb99b'
p459
S'7070e73ac6795a8a02270381fcdfb99b'
p460
sS'807090991f3da3c1132f2b5dec7511a3'
p461
S'807090991f3da3c1132f2b5dec7511a3'
p462
sS'c342a9a6e8f8beee266677330812b11a'
p463
S'c342a9a6e8f8beee266677330812b11a'
p464
sS'905cc1fc0b25d293cc9c053c6e70919c'
p465
S'905cc1fc0b25d293cc9c053c6e70919c'
p466
sS'a4756d0fb104b86ec1c6cbbb23a2c45b'
p467
S'a4756d0fb104b86ec1c6cbbb23a2c45b'
p468
sS'b242c1cb8ca5b84b129bffea7bc76fae'
p469
S'b242c1cb8ca5b84b129bffea7bc76fae'
p470
sS'a1e68c58d8bce6639dd5ec2e4bccb79c'
p471
S'a1e68c58d8bce6639dd5ec2e4bccb79c'
p472
sS'a33580103ea07f5f24cbda7500c28781'
p473
S'a33580103ea07f5f24cbda7500c28781'
p474
sS'81ec8dd3f588bacf6fe3ca4744dabd85'
p475
S'81ec8dd3f588bacf6fe3ca4744dabd85'
p476
sS'22f1e10e563130d67bb55961a7271447'
p477
S'22f1e10e563130d67bb55961a7271447'
p478
sS'20f246783e49bd5d1d7d90662e97a9e9'
p479
S'20f246783e49bd5d1d7d90662e97a9e9'
p480
sS'324ed762499093ef9cd82d8e346070dc'
p481
S'324ed762499093ef9cd82d8e346070dc'
p482
sS'5032e7e1f8cd2a9cee4dba605bb71c39'
p483
S'5032e7e1f8cd2a9cee4dba605bb71c39'
p484
sS'32a20d06dc9132648eaead1ca9b1033d'
p485
S'32a20d06dc9132648eaead1ca9b1033d'
p486
sS'08261732bfcae9a06c7fd6e6f76b2a81'
p487
S'08261732bfcae9a06c7fd6e6f76b2a81'
p488
sS'23c7c4f6fc13fdcc9e0959aabfdafe0e'
p489
S'23c7c4f6fc13fdcc9e0959aabfdafe0e'
p490
sS'33cc90da028fd1db12c21ac77b6c2532'
p491
S'33cc90da028fd1db12c21ac77b6c2532'
p492
sS'5075e81a944c44aa4701d94a80c0cccc'
p493
S'5075e81a944c44aa4701d94a80c0cccc'
p494
sS'd5f408d4570f4d65c796bca3953704de'
p495
S'd5f408d4570f4d65c796bca3953704de'
p496
sS'a3eab7ad23bc677f8513f374ba596b92'
p497
S'a3eab7ad23bc677f8513f374ba596b92'
p498
sS'd5ebf976acd93ae86bc92b49273ebbd2'
p499
S'd5ebf976acd93ae86bc92b49273ebbd2'
p500
sS'a5b40ff4ca9be61c6295fe8e6b5c7df4'
p501
S'a5b40ff4ca9be61c6295fe8e6b5c7df4'
p502
sS'b1961865622a279d82ceffa4dc0fc414'
p503
S'b1961865622a279d82ceffa4dc0fc414'
p504
sS'62f6ca088970853ccb2fd794cc65bf65'
p505
S'62f6ca088970853ccb2fd794cc65bf65'
p506
sS'a21376fd20b388864bc9d08e10902c46'
p507
S'a21376fd20b388864bc9d08e10902c46'
p508
sS'815a763f2c764a33094625aedb37d9ef'
p509
S'815a763f2c764a33094625aedb37d9ef'
p510
sS'b768c2760776c66dfed69d4ea0b60d1c'
p511
S'b768c2760776c66dfed69d4ea0b60d1c'
p512
sS'802660d278ba369c56a1bc7a31baa265'
p513
S'802660d278ba369c56a1bc7a31baa265'
p514
sS'0278192ce1aa7f8c4ae746eae73e6475'
p515
S'0278192ce1aa7f8c4ae746eae73e6475'
p516
sS'717c6535d2743d25384de477af509559'
p517
S'717c6535d2743d25384de477af509559'
p518
sS'c5e453ce174407cc2796c5f3444cc2c6'
p519
S'c5e453ce174407cc2796c5f3444cc2c6'
p520
sS'81c2d13624f473c10f9866dee8ce79fb'
p521
S'81c2d13624f473c10f9866dee8ce79fb'
p522
sS'060c18ffe4b4f8b47c90a2339533d622'
p523
S'060c18ffe4b4f8b47c90a2339533d622'
p524
sS'90ff8f17742e35022a36473867119d85'
p525
S'90ff8f17742e35022a36473867119d85'
p526
sS'd11e481c9d30e80ffc55c706ffb30f11'
p527
S'd11e481c9d30e80ffc55c706ffb30f11'
p528
sS'b3f2970a3b5196f28dc56ed39f2b2508'
p529
S'b3f2970a3b5196f28dc56ed39f2b2508'
p530
sS'b2254a732c927b91fc91de18a2f3c5c9'
p531
S'b2254a732c927b91fc91de18a2f3c5c9'
p532
sS'519b94ba9a84b4ede97b7478cefacf65'
p533
S'519b94ba9a84b4ede97b7478cefacf65'
p534
sS'c2364137e928f9fd1cd1d62c5b19bd3c'
p535
S'c2364137e928f9fd1cd1d62c5b19bd3c'
p536
sS'c32e9387f94c67a39d4c35b111302b0b'
p537
S'c32e9387f94c67a39d4c35b111302b0b'
p538
sS'd3073b32b203148082cc15ec46f5105f'
p539
S'd3073b32b203148082cc15ec46f5105f'
p540
sS'331f0d1b3e25f7a3921642c26380f09b'
p541
S'331f0d1b3e25f7a3921642c26380f09b'
p542
sS'b174b9754af5e723a047b1093d96593b'
p543
S'b174b9754af5e723a047b1093d96593b'
p544
sS'b5088c9af7eeb7d2d966881a017384b6'
p545
S'b5088c9af7eeb7d2d966881a017384b6'
p546
sS'326a9a10efba0f8bf0354d4d0a7d30fd'
p547
S'326a9a10efba0f8bf0354d4d0a7d30fd'
p548
sS'd1bf928492ba4c066e2c5504a79a2d92'
p549
S'd1bf928492ba4c066e2c5504a79a2d92'
p550
sS'005528c99846dfd84e7a29ae2cf18fd8'
p551
S'005528c99846dfd84e7a29ae2cf18fd8'
p552
sS'c408d44ff050d84a6679c88b6c156ca7'
p553
S'c408d44ff050d84a6679c88b6c156ca7'
p554
sS'0172fef366185da8add30d714f346a35'
p555
S'0172fef366185da8add30d714f346a35'
p556
sS'51fc857e648ed394fc515417ee04c633'
p557
S'51fc857e648ed394fc515417ee04c633'
p558
sS'949304663e15ab1dcd9a0781b6d871d8'
p559
S'949304663e15ab1dcd9a0781b6d871d8'
p560
sS'325e833996f116a6a24d5567ba2aefe3'
p561
S'325e833996f116a6a24d5567ba2aefe3'
p562
sS'22e2fe27211a28c8cc5b67d498824743'
p563
S'22e2fe27211a28c8cc5b67d498824743'
p564
sS'c40f9f7eea18ede8f0f6ed40f3e8d39e'
p565
S'c40f9f7eea18ede8f0f6ed40f3e8d39e'
p566
sS'a13302780b76aa7f678c83052e1f80f5'
p567
S'a13302780b76aa7f678c83052e1f80f5'
p568
sS'34659a10411968d7d954928aef20ae6a'
p569
S'34659a10411968d7d954928aef20ae6a'
p570
sS'930bc9f36310286d105c318a96264eba'
p571
S'930bc9f36310286d105c318a96264eba'
p572
sS'90bc59dafe96c97402785b619dcfdd21'
p573
S'90bc59dafe96c97402785b619dcfdd21'
p574
sS'290a6595331647dc0f7b8c20f8ca38a3'
p575
S'290a6595331647dc0f7b8c20f8ca38a3'
p576
sS'd6e0cbadf6d62c8fc034954878bdf7b6'
p577
S'd6e0cbadf6d62c8fc034954878bdf7b6'
p578
sS'808ab4f1cca8091b05d26f15f775c525'
p579
S'808ab4f1cca8091b05d26f15f775c525'
p580
sS'a3d453875aea8d2def1aa20f22bd33dc'
p581
S'a3d453875aea8d2def1aa20f22bd33dc'
p582
sS'd3b55fd8e844379a98c9e9d6ebe63175'
p583
S'd3b55fd8e844379a98c9e9d6ebe63175'
p584
sS'1f2366c3955cf09b599a8a9233367cac'
p585
S'1f2366c3955cf09b599a8a9233367cac'
p586
sS'54269539f16af2bdac6ae146e1b934a1'
p587
S'54269539f16af2bdac6ae146e1b934a1'
p588
sS'd5036353d1b1b9018c4443442ff8c68b'
p589
S'd5036353d1b1b9018c4443442ff8c68b'
p590
sS'27546542eea38e818e2ac51d4ec9775f'
p591
S'27546542eea38e818e2ac51d4ec9775f'
p592
sS'31db43893a0d7c213dee4bad716bbb62'
p593
S'31db43893a0d7c213dee4bad716bbb62'
p594
sS'578adec078a8c12a19ab07a4e64cf3b2'
p595
S'578adec078a8c12a19ab07a4e64cf3b2'
p596
sS'b32a53310f561ef383c8c4dd3ccb5d1b'
p597
S'b32a53310f561ef383c8c4dd3ccb5d1b'
p598
sS'd411eb6d3dd126922f1e18122ea2e346'
p599
S'd411eb6d3dd126922f1e18122ea2e346'
p600
sS'84870116484818d0428a2303dabdd37b'
p601
S'84870116484818d0428a2303dabdd37b'
p602
sS'31ad1a73583f2d44e741747e4fc4dbe0'
p603
S'31ad1a73583f2d44e741747e4fc4dbe0'
p604
sS'17b48167db6bcb087412b8a047446331'
p605
S'17b48167db6bcb087412b8a047446331'
p606
sS'0006dfb19193ff5910b3ffc94a29a7f6'
p607
S'0006dfb19193ff5910b3ffc94a29a7f6'
p608
sS'84bc4455b4ecc97a6e95241beb6cd2f5'
p609
S'84bc4455b4ecc97a6e95241beb6cd2f5'
p610
sS'2589f45b78daf51f1f4412f743387d90'
p611
S'2589f45b78daf51f1f4412f743387d90'
p612
sS'c2dd0c2d9416183ab132052c7f389db9'
p613
S'c2dd0c2d9416183ab132052c7f389db9'
p614
sS'8377ec4ff4663a70419490020f2ac13d'
p615
S'8377ec4ff4663a70419490020f2ac13d'
p616
sS'34dc911577554e81eee75cfe0fe709ff'
p617
S'34dc911577554e81eee75cfe0fe709ff'
p618
sS'86060592b44f5796e297d495f5aaee4f'
p619
S'86060592b44f5796e297d495f5aaee4f'
p620
sS'd7ce189248c81102a9a4e7ba74a146f8'
p621
S'd7ce189248c81102a9a4e7ba74a146f8'
p622
sS'957713c3f6e5549e5f24661aefbb5edd'
p623
S'957713c3f6e5549e5f24661aefbb5edd'
p624
sS'a4f4fd555bcbfe6f62725a5599aee941'
p625
S'a4f4fd555bcbfe6f62725a5599aee941'
p626
sS'221bdade3f1bd0dd211025fdc859055b'
p627
S'221bdade3f1bd0dd211025fdc859055b'
p628
sS'06dc60ab51a3ba87757726f7a085d9d5'
p629
S'06dc60ab51a3ba87757726f7a085d9d5'
p630
sS'509c649dd40ee219afd6c41e25e38d36'
p631
S'509c649dd40ee219afd6c41e25e38d36'
p632
sS'd5aafe1af9449d87262a5016f0993d99'
p633
S'd5aafe1af9449d87262a5016f0993d99'
p634
sS'a1565742cfdebc0d7b21f2dba34a4c5c'
p635
S'a1565742cfdebc0d7b21f2dba34a4c5c'
p636
sS'940f7e9ab19be7a9ce0008a6e6b01f9f'
p637
S'940f7e9ab19be7a9ce0008a6e6b01f9f'
p638
sS'9271df78c6f33488bae8d9ab82a47440'
p639
S'9271df78c6f33488bae8d9ab82a47440'
p640
sS'a26b2ba079e8616c8ce35f3533bc45ec'
p641
S'a26b2ba079e8616c8ce35f3533bc45ec'
p642
sS'202cfbaccc16ecbfe4c8f544ebf50ded'
p643
S'202cfbaccc16ecbfe4c8f544ebf50ded'
p644
sS'5550b32b309572142b91577fa1a6112a'
p645
S'5550b32b309572142b91577fa1a6112a'
p646
sS'd16a128f17d909a42dbfe0e396003fad'
p647
S'd16a128f17d909a42dbfe0e396003fad'
p648
sS'c4f1656879c4772eefb301379a510721'
p649
S'c4f1656879c4772eefb301379a510721'
p650
sS'32ce3a2536052169e1ec9be6f493d92c'
p651
S'32ce3a2536052169e1ec9be6f493d92c'
p652
sS'30d69e8b5389b4a4e2f727d846cacee9'
p653
S'30d69e8b5389b4a4e2f727d846cacee9'
p654
sS'51b69c710ade0340e86daf70c8a07e12'
p655
S'51b69c710ade0340e86daf70c8a07e12'
p656
sS'90489a23cb732ae082adf3def0b5d243'
p657
S'90489a23cb732ae082adf3def0b5d243'
p658
sS'2272d05b959f133bcf3e38c48ddbfcad'
p659
S'2272d05b959f133bcf3e38c48ddbfcad'
p660
sS'51c2c4afe76bcd179ba83619b4840c71'
p661
S'51c2c4afe76bcd179ba83619b4840c71'
p662
sS'd91a6687f9760b20e5aa4e88cf8b18a8'
p663
S'd91a6687f9760b20e5aa4e88cf8b18a8'
p664
sS'2017146d4cec9afb3f477f8a541e5aa1'
p665
S'2017146d4cec9afb3f477f8a541e5aa1'
p666
sS'a2e80512b72f013c89ed2884d39e1eeb'
p667
S'a2e80512b72f013c89ed2884d39e1eeb'
p668
sS'819cf75b209768d2083ee84059ec294f'
p669
S'819cf75b209768d2083ee84059ec294f'
p670
sa(lp671
S'90489a23cb732ae082adf3def0b5d243_3212'
p672
aS'82281825ed1452977a764643428d9976_3176'
p673
aS'913cf9179e7dc56363673a926eaf5b7b_3204'
p674
aS'5550b32b309572142b91577fa1a6112a_3268'
p675
aS'c4f1656879c4772eefb301379a510721_3188'
p676
aS'82a0f36bad3db10cda8bdd8601348959_3200'
p677
aS'c1f844e0d2a6b7fdeddc9d6758a1e499_3168'
p678
aS'a1cad6bf3bc2ed6329e98691ca0822d8_3304'
p679
aS'33d9e187ca5c19d9e6ff43cf7705e72b_3244'
p680
aS'b4081a8b806461abf0bdfbe081d6a691_3216'
p681
aS'd1f8897c649bd60080c8b1d7027785d9_3168'
p682
aS'c408d44ff050d84a6679c88b6c156ca7_3132'
p683
aS'a4756d0fb104b86ec1c6cbbb23a2c45b_tmp_3244'
p684
aS'32abc951d6c707d2036c9e2a50e5fcb6_2808'
p685
aS'b295318cdd0ad09baa1cdadf86b90fc1_3228'
p686
aS'819cf75b209768d2083ee84059ec294f_3208'
p687
aS'221bdade3f1bd0dd211025fdc859055b_3248'
p688
aS'52cd8c9cc8c4e794e9243d787853f556_tmp_3184'
p689
aS'b3f691d4f0fe5ac993b75b559046bdd5_3160'
p690
aS'2a3f0f96e4cc7ae13558d80d99426233_3296'
p691
aS'5169113d8207a5605ff57604a00c030a_tmp_2860'
p692
aS'201a7a21f24c811d9ba46c17ef3f06cf_3500'
p693
aS'005528c99846dfd84e7a29ae2cf18fd8_3208'
p694
aS'd411eb6d3dd126922f1e18122ea2e346_3160'
p695
aS'2017146d4cec9afb3f477f8a541e5aa1_3204'
p696
aS'31b164b4dc1d2744bf11183604572648_3436'
p697
aS'b6b51779559b5f20eccc04b0b20bf1fc_3188'
p698
aS'52cd8c9cc8c4e794e9243d787853f556_3072'
p699
aS'518c227fc67926213502da39d8d44fd6_tmp_3372'
p700
aS'2b0d1f7527e0191f190744e8a1e319c3_3000'
p701
aS'a1a5a8d4da63f6744874190a4ce6ba5f_3268'
p702
aS'2b0d1f7527e0191f190744e8a1e319c3_2860'
p703
aS'340c63ed7d513d67cf007983d34e6f68_3032'
p704
aS'b55664cd1314cae5a3172a147c446a67_3296'
p705
aS'c55c1627f5bf9fc6d85ea6e8501dbf78_tmp_3448'
p706
aS'28e17f1e110f3508ceb611839986a4f4_3208'
p707
aS'b768c2760776c66dfed69d4ea0b60d1c_3184'
p708
aS'33a38040289cb673ebcce042471d35ff_3248'
p709
aS'02c27a2e4c215d22fabdfc7b46fd6f20_3300'
p710
aS'2272d05b959f133bcf3e38c48ddbfcad_3208'
p711
aS'23ed4c1867cf18a06fed1b8fa7ec523e_3192'
p712
aS'd91a6687f9760b20e5aa4e88cf8b18a8_3180'
p713
aS'd411eb6d3dd126922f1e18122ea2e346_3136'
p714
aS'51d181bc9524248559dff26725b05bb8_3144'
p715
aS'51c2c4afe76bcd179ba83619b4840c71_3120'
p716
aS'd108622979a9586df24338f535b3f047_3228'
p717
aS'b5a875aee144f95bcefcdb7f6daea440_3224'
p718
aS'c603502225770041c03fd732837719c8_3148'
p719
aS'c121f821dc6853574777f3bdf6a68c5a_3168'
p720
aS'325e833996f116a6a24d5567ba2aefe3_3340'
p721
aS'a30bbae84906c52d3f3c156994e58843_3276'
p722
aS'c2b5874fc252386e39b1481b375fd68f_2804'
p723
aS'703b754ea67898da46ed27e0527f6ce7_3268'
p724
aS'5169113d8207a5605ff57604a00c030a_2968'
p725
aS'32a20d06dc9132648eaead1ca9b1033d_3272'
p726
aS'c1145db43a83fa9721160a9b0ba43a63_3160'
p727
aS'808ab4f1cca8091b05d26f15f775c525_3140'
p728
aS'331f0d1b3e25f7a3921642c26380f09b_3196'
p729
aS'31031b0783dea6906977abae83ab022d_3284'
p730
aS'940f7e9ab19be7a9ce0008a6e6b01f9f_3256'
p731
aS'61fd4cac9f5429d14d015e7632e3514a_3284'
p732
aS'7070e73ac6795a8a02270381fcdfb99b_3200'
p733
aS'10438da7c2166156c4fbce788e4793ed_3152'
p734
aS'237c4e337993167ea887286c61844807_3152'
p735
aS'043121379d4a5f0f227d74ef0336428c_3260'
p736
aS'b10f6b10bd09dec312300bae2214e183_3112'
p737
aS'518c227fc67926213502da39d8d44fd6_3380'
p738
aS'd5f408d4570f4d65c796bca3953704de_3204'
p739
aS'b4ecab3de919dc6f8095a3b462524597_3020'
p740
aS'246920c3ec29d419549fadefd78c30e4_3396'
p741
aS'528360b3ff12866c8de7fb90369cf6a4_3232'
p742
aS'337da6c8942095e6f1359325676f05ef_3228'
p743
aS'305303294ae289f97ceacc37112afcba_3096'
p744
aS'c2364137e928f9fd1cd1d62c5b19bd3c_3072'
p745
aS'29fa30bb9dd612507b28bf4ec36f0372_3132'
p746
aS'31b164b4dc1d2744bf11183604572648_3244'
p747
aS'31b164b4dc1d2744bf11183604572648_3336'
p748
aS'c3ea3ad31e662953f0fcd1c62c50b130_3212'
p749
aS'd7f83cb68543a60efc18de6afeda3afd_3204'
p750
aS'c3ec90236977ee3e046c466cbb04d031_3280'
p751
aS'52cd8c9cc8c4e794e9243d787853f556_3292'
p752
aS'5550b32b309572142b91577fa1a6112a_3356'
p753
aS'703b754ea67898da46ed27e0527f6ce7_3224'
p754
aS'52cd8c9cc8c4e794e9243d787853f556_tmp_3236'
p755
aS'b271dbd8ad7519eab3e5e9008013623e_3240'
p756
aS'b55664cd1314cae5a3172a147c446a67_3232'
p757
aS'd108622979a9586df24338f535b3f047_3196'
p758
aS'c223ce8475dad31d490377183fe057be_3132'
p759
aS'a2593ed0e66611da58ad2fcdca426cdb_3156'
p760
aS'53d5d20ac42c9e42d55b9a9dcc3fc344_3140'
p761
aS'd0c4bba46e68e0ff5efce1297faa3b49_3200'
p762
aS'81f727efa7f0977b86ed3581e159b219_3156'
p763
aS'316ec8b680b5376072bff5338c5eae20_3228'
p764
aS'c121f821dc6853574777f3bdf6a68c5a_3116'
p765
aS'27546542eea38e818e2ac51d4ec9775f_3252'
p766
aS'31db43893a0d7c213dee4bad716bbb62_3292'
p767
aS'd1441c9c8de5c7f597fa7e2f1f7f222a_3240'
p768
aS'833562ee3e3a2569fe42a303d5619464_3036'
p769
aS'263bde02a8c2daa812ae145e9efcda4d_3232'
p770
aS'337da6c8942095e6f1359325676f05ef_tmp_3364'
p771
aS'81c2d13624f473c10f9866dee8ce79fb_3132'
p772
aS'a03c34b3882e76511c31cd6a7e158bc6_3140'
p773
aS'b55664cd1314cae5a3172a147c446a67_3212'
p774
aS'22f1e10e563130d67bb55961a7271447_3188'
p775
aS'407ced5a43dbf4610acd2441ba62e125_3180'
p776
aS'a0ceb22ed87df9019f39c5c135a58c17_3188'
p777
aS'a4f4fd555bcbfe6f62725a5599aee941_3096'
p778
aS'4037115559746cfd5c865a9f713c2625_3148'
p779
aS'9271df78c6f33488bae8d9ab82a47440_3200'
p780
aS'2a8d402d0698b7d07fbeebce048df50b_3252'
p781
aS'8523f5ace7369187b1f55c2066a82836_3232'
p782
aS'52cd8c9cc8c4e794e9243d787853f556_tmp_3284'
p783
aS'337da6c8942095e6f1359325676f05ef_3432'
p784
aS'd287f3dc57fd03a527747396a3a901b5_3276'
p785
aS'c55c1627f5bf9fc6d85ea6e8501dbf78_tmp_3116'
p786
aS'55da555e75ab922f7dfcceb1209289b3_3088'
p787
aS'50ba51bc86d689f324d7ca27d0a7eb52_3296'
p788
aS'a0f2e27b28835c96377b73b007c09f15_3220'
p789
aS'5116f8d8c31a4e458c4a633c04082ebd_3288'
p790
aS'819cf75b209768d2083ee84059ec294f_3224'
p791
aS'807090991f3da3c1132f2b5dec7511a3_3220'
p792
aS'a4756d0fb104b86ec1c6cbbb23a2c45b_tmp_3340'
p793
aS'a607dd2dc35f0a24e010756620c19227_3092'
p794
aS'a13302780b76aa7f678c83052e1f80f5_3124'
p795
aS'33a6249e0f094d64bda9660f3294c1ba_3064'
p796
aS'60ef32102d1ae0d8bfa046757739edcd_3228'
p797
aS'b4ecab3de919dc6f8095a3b462524597_3060'
p798
aS'27f348177560314182f161d9ee90b999_3140'
p799
aS'd293b63ea6e67eb88cd85980e25c3642_3188'
p800
aS'225a739c4a77c0851f5486f6208ef5b7_3148'
p801
aS'80818bc6491f5ec1b58d2058ba24fb44_3284'
p802
aS'27f00a453f3bdd8a3beb273b3ad2d39d_3212'
p803
aS'd5036353d1b1b9018c4443442ff8c68b_3216'
p804
aS'a4756d0fb104b86ec1c6cbbb23a2c45b_tmp_3452'
p805
aS'337da6c8942095e6f1359325676f05ef_3320'
p806
aS'd5229b1ba9ac805a1e7c0b871bd1eb96_3112'
p807
aS'52149c30b1c49a7a5a6a9e119b999715_3208'
p808
aS'a429bfdadd70794a59885fe2a53dd6ee_3224'
p809
aS'930bc9f36310286d105c318a96264eba_336'
p810
aS'54269539f16af2bdac6ae146e1b934a1_3144'
p811
aS'957713c3f6e5549e5f24661aefbb5edd_3144'
p812
aS'b55664cd1314cae5a3172a147c446a67_3268'
p813
aS'c2118c4184e53db52b1ba3d58ffe15f6_3256'
p814
aS'c2dd0c2d9416183ab132052c7f389db9_3160'
p815
aS'03c009b451e012002513513a5d7e1b00_3444'
p816
aS'b174b9754af5e723a047b1093d96593b_3152'
p817
aS'a21376fd20b388864bc9d08e10902c46_3084'
p818
aS'5169113d8207a5605ff57604a00c030a_tmp_3064'
p819
aS'202cfbaccc16ecbfe4c8f544ebf50ded_3068'
p820
aS'2173f89db89fd55a2d92eb824cd6e4f4_2908'
p821
aS'61fd4cac9f5429d14d015e7632e3514a_3244'
p822
aS'5169113d8207a5605ff57604a00c030a_tmp_3008'
p823
aS'a0f2e27b28835c96377b73b007c09f15_3148'
p824
aS'31b164b4dc1d2744bf11183604572648_3392'
p825
aS'1036837a1c94b6568a6596077452a19a_3100'
p826
aS'c3ea3ad31e662953f0fcd1c62c50b130_3156'
p827
aS'b271dbd8ad7519eab3e5e9008013623e_3216'
p828
aS'518c227fc67926213502da39d8d44fd6_3440'
p829
aS'd16a128f17d909a42dbfe0e396003fad_3084'
p830
aS'316ec8b680b5376072bff5338c5eae20_3164'
p831
aS'5116f8d8c31a4e458c4a633c04082ebd_3208'
p832
aS'347bad094f00c9013f59a07e1647e939_3320'
p833
aS'c40f9f7eea18ede8f0f6ed40f3e8d39e_3120'
p834
aS'902e9898276a9dd149301756092550ce_3228'
p835
aS'a4b8c9fbbc6c509fe9c1733141e611d7_3220'
p836
aS'2b0d1f7527e0191f190744e8a1e319c3_2828'
p837
aS'84870116484818d0428a2303dabdd37b_3216'
p838
aS'2589f45b78daf51f1f4412f743387d90_3364'
p839
aS'5033a94c6c7dd21d15615ca6d7992147_3340'
p840
aS'861d9037f8ec7b8b2d01dad44ec6a524_3144'
p841
aS'5169113d8207a5605ff57604a00c030a_tmp_2956'
p842
aS'560ed485d9b62ad9632b8d7d20b266ce_3180'
p843
aS'83f04b9aebe38cb456cf68f206b0f688_3288'
p844
aS'28e17f1e110f3508ceb611839986a4f4_3164'
p845
aS'a1a4e96dd68e9233904b107cc2e9251f_2816'
p846
aS'd1bf928492ba4c066e2c5504a79a2d92_3196'
p847
aS'd108622979a9586df24338f535b3f047_tmp_3184'
p848
aS'33ba5ee592067b75ac74aceb66170787_2836'
p849
aS'd62e314616772f9b0401f7738e262eb2_3064'
p850
aS'3429dc19d8d5f100f3d3fe403cc72726_3152'
p851
aS'52cd8c9cc8c4e794e9243d787853f556_3100'
p852
aS'2589f45b78daf51f1f4412f743387d90_3288'
p853
aS'b5088c9af7eeb7d2d966881a017384b6_3120'
p854
aS'6123f4e765d6ba2bb4d9878de8f0598b_3200'
p855
aS'b10f6b10bd09dec312300bae2214e183_3088'
p856
aS'90bc59dafe96c97402785b619dcfdd21_3300'
p857
aS'd695c2c7d9718238bd95b354a147c775_3164'
p858
aS'd0aec3d90e153c188c76206a672014b7_3148'
p859
aS'a17b9b402096a12c4d9e7f1c57a61133_3260'
p860
aS'a4756d0fb104b86ec1c6cbbb23a2c45b_3348'
p861
aS'90489a23cb732ae082adf3def0b5d243_3272'
p862
aS'0278192ce1aa7f8c4ae746eae73e6475_3204'
p863
aS'236740b7cbf84cc3e11e009499392313_3164'
p864
aS'b45a2b6017d85fba450c60e97994367d_3264'
p865
aS'32ce3a2536052169e1ec9be6f493d92c_3356'
p866
aS'2a3f0f96e4cc7ae13558d80d99426233_3124'
p867
aS'249e49943601cb7182c7cf47b37a8598_3312'
p868
aS'2173f89db89fd55a2d92eb824cd6e4f4_3020'
p869
aS'a4207e48739ab4da384acaeebcba0c66_3184'
p870
aS'5550b32b309572142b91577fa1a6112a_3380'
p871
aS'd381dc0651aee234b7d59c06800049c4_3116'
p872
aS'a4756d0fb104b86ec1c6cbbb23a2c45b_3460'
p873
aS'290a6595331647dc0f7b8c20f8ca38a3_3296'
p874
aS'd288e9a5bbd77711399f985584d374a6_3140'
p875
aS'32ce3a2536052169e1ec9be6f493d92c_3272'
p876
aS'b0576ac96f4dd6b5ec82566b5f63f651_3144'
p877
aS'c5e453ce174407cc2796c5f3444cc2c6_3172'
p878
aS'31ad1a73583f2d44e741747e4fc4dbe0_3188'
p879
aS'a4756d0fb104b86ec1c6cbbb23a2c45b_3260'
p880
aS'2872821c2d87ae14a98e0017cffb4434_3132'
p881
aS'b142b8399b09e535dc73a1924b0e5daa_3080'
p882
aS'7183044ef3d566ed8d109695648ff7f9_3208'
p883
aS'c1f844e0d2a6b7fdeddc9d6758a1e499_3244'
p884
aS'd20135f6ce0705c0f627bd0d40d1448a_3208'
p885
aS'51b69c710ade0340e86daf70c8a07e12_3176'
p886
aS'337da6c8942095e6f1359325676f05ef_tmp_3424'
p887
aS'c181c5ad7bee8a1f0e87bf31701c8a43_3100'
p888
aS'c097e3603b5903d6f7c65038d69b7285_3072'
p889
aS'512fe4ffc612470c04c57b501c8a7828_3188'
p890
aS'84dffc6d32371bbbfa701551e363af30_3212'
p891
aS'249e49943601cb7182c7cf47b37a8598_3268'
p892
aS'201a7a21f24c811d9ba46c17ef3f06cf_3280'
p893
aS'c40f9f7eea18ede8f0f6ed40f3e8d39e_3148'
p894
aS'b1961865622a279d82ceffa4dc0fc414_3224'
p895
aS'c2364137e928f9fd1cd1d62c5b19bd3c_3056'
p896
aS'1088046dcb34429d55d4695cf3b28301_3232'
p897
aS'c55c1627f5bf9fc6d85ea6e8501dbf78_3288'
p898
aS'51b69c710ade0340e86daf70c8a07e12_3320'
p899
aS'5550b32b309572142b91577fa1a6112a_3276'
p900
aS'518c227fc67926213502da39d8d44fd6_3184'
p901
aS'3002038e55383b4e1d14abc7182a1e78_3260'
p902
aS'51b69c710ade0340e86daf70c8a07e12_3264'
p903
aS'b67c317f6397fde0790290046ab3ff1b_3212'
p904
aS'b12e66515990aba2ca11fd4e72959f42_3124'
p905
aS'b242c1cb8ca5b84b129bffea7bc76fae_3064'
p906
aS'33cc90da028fd1db12c21ac77b6c2532_3256'
p907
aS'c1f844e0d2a6b7fdeddc9d6758a1e499_3204'
p908
aS'b1961865622a279d82ceffa4dc0fc414_3256'
p909
aS'08261732bfcae9a06c7fd6e6f76b2a81_3168'
p910
aS'b1def3ea5f4f716e30b561cbbfa7dbc7_3032'
p911
aS'326a9a10efba0f8bf0354d4d0a7d30fd_3088'
p912
aS'd2e9862303ae42959b733f11a168e268_3048'
p913
aS'c2118c4184e53db52b1ba3d58ffe15f6_3280'
p914
aS'309985e32deb3b6a2b548cef840701f5_3184'
p915
aS'5169113d8207a5605ff57604a00c030a_2872'
p916
aS'2b0d1f7527e0191f190744e8a1e319c3_tmp_2944'
p917
aS'd0c4bba46e68e0ff5efce1297faa3b49_3148'
p918
aS'52cd8c9cc8c4e794e9243d787853f556_3244'
p919
aS'93c213c3c09cfaf1de11b23469071368_3208'
p920
aS'29fa30bb9dd612507b28bf4ec36f0372_3224'
p921
aS'316a01e2c518f64cf2f8b0a843cad0f1_3264'
p922
aS'a3d453875aea8d2def1aa20f22bd33dc_3280'
p923
aS'5375fd472c9c4dbb143a89796571cc9e_3216'
p924
aS'b2b712a7e0f486a0eddfb412f06a6c21_3064'
p925
aS'26914ea7c65538ef9954b779ab7dc280_3236'
p926
aS'a2593ed0e66611da58ad2fcdca426cdb_3208'
p927
aS'25bc7a8af105eb9ac6feb54e16ae741f_3340'
p928
aS'd695c2c7d9718238bd95b354a147c775_3128'
p929
aS'a4756d0fb104b86ec1c6cbbb23a2c45b_3412'
p930
aS'b0600327e25557f457e477594e3684e6_3016'
p931
aS'60e777d78106b7f803ee6bf5b74d317d_3244'
p932
aS'b6b51779559b5f20eccc04b0b20bf1fc_3168'
p933
aS'a429bfdadd70794a59885fe2a53dd6ee_3200'
p934
aS'2a3f0f96e4cc7ae13558d80d99426233_3240'
p935
aS'290a6595331647dc0f7b8c20f8ca38a3_3264'
p936
aS'81ec8dd3f588bacf6fe3ca4744dabd85_3108'
p937
aS'52cd8c9cc8c4e794e9243d787853f556_3192'
p938
aS'86060592b44f5796e297d495f5aaee4f_3180'
p939
aS'504084a3a098a94ac2cd6c1d2c6ed357_3092'
p940
aS'd15a3109da6635b766b2e7e2a3974f7e_3252'
p941
aS'518c227fc67926213502da39d8d44fd6_tmp_3316'
p942
aS'2b0d1f7527e0191f190744e8a1e319c3_tmp_2848'
p943
aS'd5aafe1af9449d87262a5016f0993d99_3216'
p944
aS'90bc59dafe96c97402785b619dcfdd21_3276'
p945
aS'd5ebf976acd93ae86bc92b49273ebbd2_3136'
p946
aS'd2276a5243924db8aac9fb6f0a3bd408_3292'
p947
aS'b2254a732c927b91fc91de18a2f3c5c9_3244'
p948
aS'31b164b4dc1d2744bf11183604572648_tmp_3328'
p949
aS'a1e68c58d8bce6639dd5ec2e4bccb79c_3224'
p950
aS'961bac503db82b784e6f37dd9d0cebf6_3224'
p951
aS'c55c1627f5bf9fc6d85ea6e8501dbf78_3336'
p952
aS'509c649dd40ee219afd6c41e25e38d36_3164'
p953
aS'c223ce8475dad31d490377183fe057be_3236'
p954
aS'd8762c8cea86083ce9a3aec9aedb109f_3008'
p955
aS'a3d453875aea8d2def1aa20f22bd33dc_3160'
p956
aS'b32a53310f561ef383c8c4dd3ccb5d1b_3180'
p957
aS'55da555e75ab922f7dfcceb1209289b3_3116'
p958
aS'9141498693d7df7a60b1894ca6417fcd_3264'
p959
aS'246920c3ec29d419549fadefd78c30e4_3260'
p960
aS'337da6c8942095e6f1359325676f05ef_3380'
p961
aS'31b164b4dc1d2744bf11183604572648_tmp_3428'
p962
aS'd422d21370469217ba738e5fad136265_3224'
p963
aS'd11e481c9d30e80ffc55c706ffb30f11_3164'
p964
aS'2173f89db89fd55a2d92eb824cd6e4f4_2964'
p965
aS'31b164b4dc1d2744bf11183604572648_tmp_3384'
p966
aS'b32a53310f561ef383c8c4dd3ccb5d1b_3212'
p967
aS'd3b55fd8e844379a98c9e9d6ebe63175_3284'
p968
aS'c3c7402347a313740a7a10edc33cb4c5_3204'
p969
aS'60d3d41ae03d24038520a7dee6a0abbc_3224'
p970
aS'33b0342851a544405b68e3f957499c13_3156'
p971
aS'518c227fc67926213502da39d8d44fd6_tmp_3204'
p972
aS'da508d53f4f904089d63e059be87e431_3188'
p973
aS'5116f8d8c31a4e458c4a633c04082ebd_3252'
p974
aS'30d69e8b5389b4a4e2f727d846cacee9_3100'
p975
aS'b77f1865e955be2b1ffe866f54d2b261_3164'
p976
aS'305303294ae289f97ceacc37112afcba_3072'
p977
aS'c16825d05bbb35c0d36120011c6d666f_3192'
p978
aS'34dc911577554e81eee75cfe0fe709ff_3104'
p979
aS'5075e81a944c44aa4701d94a80c0cccc_3176'
p980
aS'260e166c56a4340962aa2bc2cae3eb43_3180'
p981
aS'5170d63bcfe818f0cbbdb0ea5f11726f_3304'
p982
aS'5169113d8207a5605ff57604a00c030a_3028'
p983
aS'82cf1e67ed155da7e89fc4f49b97050d_3228'
p984
aS'c323aabad606d27b03ca7182cfe66f1a_3252'
p985
aS'82ec14e682cb0322129fb4e42304962d_3236'
p986
aS'7183044ef3d566ed8d109695648ff7f9_3228'
p987
aS'b247b6b602fbfeafd096088a56f6ffb9_3152'
p988
aS'd65cd3137858bb17f8b9b7fb0964815f_3148'
p989
aS'd496a8ddf556a2097f49e780ff26ec38_3240'
p990
aS'519b94ba9a84b4ede97b7478cefacf65_3164'
p991
aS'35a2de57da22cd4d9674b6bfd282a9fc_3288'
p992
aS'23c7c4f6fc13fdcc9e0959aabfdafe0e_3092'
p993
aS'523bf273741a7c82eda8509ff5a350b4_3188'
p994
aS'd6d1946ff60a8884a6dbdefe4e89771e_3076'
p995
aS'b3f2970a3b5196f28dc56ed39f2b2508_3140'
p996
aS'337da6c8942095e6f1359325676f05ef_3240'
p997
aS'd67a719d72e33099bcc28e25249e8799_3208'
p998
aS'da41f2156f15ba570552b4c2cde2d906_3144'
p999
aS'8523f5ace7369187b1f55c2066a82836_3200'
p1000
aS'a4756d0fb104b86ec1c6cbbb23a2c45b_3228'
p1001
aS'81c2d13624f473c10f9866dee8ce79fb_3172'
p1002
aS'd203e861230e719e0a74031bd55ccd4e_3128'
p1003
aS'31b164b4dc1d2744bf11183604572648_tmp_3232'
p1004
aS'53d5d20ac42c9e42d55b9a9dcc3fc344_3172'
p1005
aS'930bc9f36310286d105c318a96264eba_3140'
p1006
aS'a4c97b2f23a8983d0a43301dfb19db69_3180'
p1007
aS'940f7e9ab19be7a9ce0008a6e6b01f9f_3216'
p1008
aS'06dc60ab51a3ba87757726f7a085d9d5_3176'
p1009
aS'c55c1627f5bf9fc6d85ea6e8501dbf78_3220'
p1010
aS'52cd8c9cc8c4e794e9243d787853f556_tmp_3080'
p1011
aS'03c009b451e012002513513a5d7e1b00_3300'
p1012
aS'70e399acca62e88cc86d9d3dc0eb50fe_2832'
p1013
aS'34659a10411968d7d954928aef20ae6a_3080'
p1014
aS'd5229b1ba9ac805a1e7c0b871bd1eb96_3148'
p1015
aS'060c18ffe4b4f8b47c90a2339533d622_3148'
p1016
aS'2c05a699fcdd02c4a3e982543363fa44_3256'
p1017
aS'337da6c8942095e6f1359325676f05ef_3212'
p1018
aS'd47eecfdc44e101c2d7a2c81e6f21156_3176'
p1019
aS'c55c1627f5bf9fc6d85ea6e8501dbf78_tmp_3280'
p1020
aS'b77f1865e955be2b1ffe866f54d2b261_3124'
p1021
aS'94d0442c0563b5bfddc6d683bd0d9087_3164'
p1022
aS'961bac503db82b784e6f37dd9d0cebf6_3192'
p1023
aS'811c47bd9f7347318794f59a8230c180_3268'
p1024
aS'70e399acca62e88cc86d9d3dc0eb50fe_2860'
p1025
aS'0006dfb19193ff5910b3ffc94a29a7f6_3156'
p1026
aS'a2c9cd82e2c0388d6d4b4dcbd5895a48_3184'
p1027
aS'241d19df78ba083825ad379426fc7a5c_3076'
p1028
aS'942a444c928e47cf47454eccbe5da352_3160'
p1029
aS'1f2366c3955cf09b599a8a9233367cac_3188'
p1030
aS'717c6535d2743d25384de477af509559_3280'
p1031
aS'2589f45b78daf51f1f4412f743387d90_3348'
p1032
aS'707e73f2f46c9bf3afca84e05b895862_3252'
p1033
aS'23377b24ad28def0c5954adcf74a8a05_3368'
p1034
aS'578adec078a8c12a19ab07a4e64cf3b2_3200'
p1035
aS'1000511f9f867a3ee51cb91e7d922e99_3256'
p1036
aS'b435648fcba6306bccc01c50c0785651_3240'
p1037
aS'a0ceb22ed87df9019f39c5c135a58c17_3228'
p1038
aS'a0113172ad9bd171c0075626f04fc224_3184'
p1039
aS'2b0d1f7527e0191f190744e8a1e319c3_3052'
p1040
aS'407ced5a43dbf4610acd2441ba62e125_3144'
p1041
aS'd6e0cbadf6d62c8fc034954878bdf7b6_3208'
p1042
aS'84870116484818d0428a2303dabdd37b_3176'
p1043
aS'23377b24ad28def0c5954adcf74a8a05_3416'
p1044
aS'd695c2c7d9718238bd95b354a147c775_3200'
p1045
aS'a0a01b4cf56dee146e3cf4701c203547_3252'
p1046
aS'329a5855e90638c7d25c6a1265d1d74f_3168'
p1047
aS'815a763f2c764a33094625aedb37d9ef_3280'
p1048
aS'170e99072c8840704e784d3ecde647a5_3204'
p1049
aS'c32e9387f94c67a39d4c35b111302b0b_3140'
p1050
aS'd1f35ba9bee466133d93bf161ad6172b_3152'
p1051
aS'005528c99846dfd84e7a29ae2cf18fd8_3184'
p1052
aS'b3b15c3261e48f4d001b08fc900f40af_3152'
p1053
aS'd5aafe1af9449d87262a5016f0993d99_3180'
p1054
aS'2b0d1f7527e0191f190744e8a1e319c3_2952'
p1055
aS'51fc857e648ed394fc515417ee04c633_3188'
p1056
aS'0172fef366185da8add30d714f346a35_3288'
p1057
aS'51921c88a21449ac0b5bbf3c1ddc2b25_3140'
p1058
aS'246920c3ec29d419549fadefd78c30e4_3340'
p1059
aS'5169113d8207a5605ff57604a00c030a_3072'
p1060
aS'905cc1fc0b25d293cc9c053c6e70919c_3252'
p1061
aS'a30bbae84906c52d3f3c156994e58843_3240'
p1062
aS'c1d930795f3c26cbdd2c22df3021c644_3248'
p1063
aS'27f348177560314182f161d9ee90b999_3188'
p1064
aS'a41cc0879fc07afd76ada851d99667e4_3200'
p1065
aS'33418d413f46cadacfc76d498ef34eae_3280'
p1066
aS'a3eab7ad23bc677f8513f374ba596b92_3256'
p1067
aS'a3d453875aea8d2def1aa20f22bd33dc_3220'
p1068
aS'5600702668f1886cd37782f53a34d316_3156'
p1069
aS'c408d44ff050d84a6679c88b6c156ca7_3212'
p1070
aS'24ef90755c68c3f2f6d4f8805615bad6_3244'
p1071
aS'2b0d1f7527e0191f190744e8a1e319c3_tmp_2988'
p1072
aS'82cf1e67ed155da7e89fc4f49b97050d_3288'
p1073
aS'8377ec4ff4663a70419490020f2ac13d_3112'
p1074
aS'317624f2903ffa72ac040e87e36f1645_3088'
p1075
aS'9141498693d7df7a60b1894ca6417fcd_3244'
p1076
aS'a1fd67af4edfb346a8c8abaab5e1cc7b_3128'
p1077
aS'd7ce189248c81102a9a4e7ba74a146f8_3256'
p1078
aS'c55c1627f5bf9fc6d85ea6e8501dbf78_3100'
p1079
aS'518c227fc67926213502da39d8d44fd6_3220'
p1080
aS'a2e80512b72f013c89ed2884d39e1eeb_3076'
p1081
aS'a5b40ff4ca9be61c6295fe8e6b5c7df4_3216'
p1082
aS'949304663e15ab1dcd9a0781b6d871d8_3148'
p1083
aS'31031b0783dea6906977abae83ab022d_3252'
p1084
aS'802660d278ba369c56a1bc7a31baa265_3148'
p1085
aS'5032e7e1f8cd2a9cee4dba605bb71c39_2812'
p1086
aS'2272d05b959f133bcf3e38c48ddbfcad_3256'
p1087
aS'b55664cd1314cae5a3172a147c446a67_3244'
p1088
aS'1037b8385f3eb7f7ed6cbdf4251b5fa2_3172'
p1089
aS'83f04b9aebe38cb456cf68f206b0f688_3248'
p1090
aS'109384695f396badeedd8e171b31b734_3184'
p1091
aS'd2276a5243924db8aac9fb6f0a3bd408_3340'
p1092
aS'b55664cd1314cae5a3172a147c446a67_3192'
p1093
aS'a607dd2dc35f0a24e010756620c19227_3080'
p1094
aS'2b0d1f7527e0191f190744e8a1e319c3_tmp_3044'
p1095
aS'337da6c8942095e6f1359325676f05ef_tmp_3312'
p1096
aS'84bc4455b4ecc97a6e95241beb6cd2f5_3144'
p1097
aS'32abc951d6c707d2036c9e2a50e5fcb6_2868'
p1098
aS'a49ab036c70167ff9894e142cfd279aa_3280'
p1099
aS'324ed762499093ef9cd82d8e346070dc_3088'
p1100
aS'c32e9387f94c67a39d4c35b111302b0b_3208'
p1101
aS'd108622979a9586df24338f535b3f047_3160'
p1102
aS'60a9a5f28d2dd295daab51d2b977cc01_3200'
p1103
aS'3002038e55383b4e1d14abc7182a1e78_3236'
p1104
aS'62f6ca088970853ccb2fd794cc65bf65_3308'
p1105
aS'833562ee3e3a2569fe42a303d5619464_3088'
p1106
aS'c3a2824e183d10930fa13a27b85186cb_3224'
p1107
aS'a33580103ea07f5f24cbda7500c28781_3040'
p1108
aS'23377b24ad28def0c5954adcf74a8a05_3320'
p1109
aS'22e2fe27211a28c8cc5b67d498824743_3280'
p1110
aS'569db7273547dfb2a0e6016e166bf275_3188'
p1111
aS'35a94ca04d07c9427c78d1befc431ea6_3252'
p1112
aS'd65cd3137858bb17f8b9b7fb0964815f_3128'
p1113
aS'c4f1656879c4772eefb301379a510721_3228'
p1114
aS'225a739c4a77c0851f5486f6208ef5b7_3200'
p1115
aS'd422d21370469217ba738e5fad136265_3200'
p1116
aS'd5229b1ba9ac805a1e7c0b871bd1eb96_3072'
p1117
aS'a4207e48739ab4da384acaeebcba0c66_3128'
p1118
aS'27546542eea38e818e2ac51d4ec9775f_3304'
p1119
aS'5177141306a32b6af318f0aa674c716b_3252'
p1120
aS'a2d9835a375e0d31347266746f62b864_3144'
p1121
aS'c181c5ad7bee8a1f0e87bf31701c8a43_3124'
p1122
aS'518c227fc67926213502da39d8d44fd6_3324'
p1123
aS'707e73f2f46c9bf3afca84e05b895862_3228'
p1124
aS'c55c1627f5bf9fc6d85ea6e8501dbf78_tmp_3212'
p1125
aS'260e166c56a4340962aa2bc2cae3eb43_3224'
p1126
aS'17b48167db6bcb087412b8a047446331_3156'
p1127
aS'd6e0cbadf6d62c8fc034954878bdf7b6_3192'
p1128
aS'31b164b4dc1d2744bf11183604572648_3200'
p1129
aS'31031b0783dea6906977abae83ab022d_3316'
p1130
aS'c55c1627f5bf9fc6d85ea6e8501dbf78_tmp_3324'
p1131
aS'd2e9862303ae42959b733f11a168e268_3096'
p1132
aS'808ab4f1cca8091b05d26f15f775c525_3120'
p1133
aS'a4756d0fb104b86ec1c6cbbb23a2c45b_tmp_3404'
p1134
aS'5033a94c6c7dd21d15615ca6d7992147_3376'
p1135
aS'd381dc0651aee234b7d59c06800049c4_3196'
p1136
aS'a0a01b4cf56dee146e3cf4701c203547_3356'
p1137
aS'd7ce189248c81102a9a4e7ba74a146f8_3284'
p1138
aS'20f246783e49bd5d1d7d90662e97a9e9_3252'
p1139
aS'33cc90da028fd1db12c21ac77b6c2532_3280'
p1140
aS'81823bb1c8598eed93c96cab959c2f74_448'
p1141
aS'd3073b32b203148082cc15ec46f5105f_3156'
p1142
aS'a1565742cfdebc0d7b21f2dba34a4c5c_3212'
p1143
aS'c097e3603b5903d6f7c65038d69b7285_3088'
p1144
aS'd695c2c7d9718238bd95b354a147c775_tmp_3152'
p1145
aS'a26b2ba079e8616c8ce35f3533bc45ec_3140'
p1146
aS'90ff8f17742e35022a36473867119d85_3196'
p1147
aS'2ab814305cf1db748057a4bc313fb503_3160'
p1148
aS'a27c21978c8a6226178465fefced555d_3216'
p1149
aS'c342a9a6e8f8beee266677330812b11a_3176'
p1150
aS'518c227fc67926213502da39d8d44fd6_tmp_3432'
p1151
aS'32cd2f076bb1984aed598750d30d212d_3324'
p1152
aS'a3512f81f74bab766b8d55d6480ea245_3212'
p1153
aS'5169113d8207a5605ff57604a00c030a_2840'
p1154
aS'c55c1627f5bf9fc6d85ea6e8501dbf78_3128'
p1155
aa.